
Builds/main.elf:     file format elf32-avr

Sections:
Idx Name          Size      VMA       LMA       File off  Algn
  0 .data         000000f0  00800100  00000faa  0000105e  2**0
                  CONTENTS, ALLOC, LOAD, DATA
  1 .text         00000faa  00000000  00000000  000000b4  2**1
                  CONTENTS, ALLOC, LOAD, READONLY, CODE
  2 .bss          0000002e  008001f0  008001f0  0000114e  2**0
                  ALLOC
  3 .eeprom       0000000c  00810000  00810000  0000114e  2**0
                  CONTENTS, ALLOC, LOAD, DATA
  4 .stab         00002f7c  00000000  00000000  0000115c  2**2
                  CONTENTS, READONLY, DEBUGGING
  5 .stabstr      000014f7  00000000  00000000  000040d8  2**0
                  CONTENTS, READONLY, DEBUGGING
  6 .comment      00000011  00000000  00000000  000055cf  2**0
                  CONTENTS, READONLY
  7 .note.gnu.avr.deviceinfo 00000040  00000000  00000000  000055e0  2**2
                  CONTENTS, READONLY
  8 .debug_info   000005f4  00000000  00000000  00005620  2**0
                  CONTENTS, READONLY, DEBUGGING
  9 .debug_abbrev 000005a2  00000000  00000000  00005c14  2**0
                  CONTENTS, READONLY, DEBUGGING
 10 .debug_line   0000001d  00000000  00000000  000061b6  2**0
                  CONTENTS, READONLY, DEBUGGING
 11 .debug_str    00000208  00000000  00000000  000061d3  2**0
                  CONTENTS, READONLY, DEBUGGING

Disassembly of section .text:

00000000 <__vectors>:
   0:	0c 94 34 00 	jmp	0x68	; 0x68 <__ctors_end>
   4:	0c 94 51 00 	jmp	0xa2	; 0xa2 <__bad_interrupt>
   8:	0c 94 51 00 	jmp	0xa2	; 0xa2 <__bad_interrupt>
   c:	0c 94 51 00 	jmp	0xa2	; 0xa2 <__bad_interrupt>
  10:	0c 94 51 00 	jmp	0xa2	; 0xa2 <__bad_interrupt>
  14:	0c 94 51 00 	jmp	0xa2	; 0xa2 <__bad_interrupt>
  18:	0c 94 51 00 	jmp	0xa2	; 0xa2 <__bad_interrupt>
  1c:	0c 94 51 00 	jmp	0xa2	; 0xa2 <__bad_interrupt>
  20:	0c 94 51 00 	jmp	0xa2	; 0xa2 <__bad_interrupt>
  24:	0c 94 51 00 	jmp	0xa2	; 0xa2 <__bad_interrupt>
  28:	0c 94 51 00 	jmp	0xa2	; 0xa2 <__bad_interrupt>
  2c:	0c 94 51 00 	jmp	0xa2	; 0xa2 <__bad_interrupt>
  30:	0c 94 51 00 	jmp	0xa2	; 0xa2 <__bad_interrupt>
  34:	0c 94 51 00 	jmp	0xa2	; 0xa2 <__bad_interrupt>
  38:	0c 94 51 00 	jmp	0xa2	; 0xa2 <__bad_interrupt>
  3c:	0c 94 51 00 	jmp	0xa2	; 0xa2 <__bad_interrupt>
  40:	0c 94 51 00 	jmp	0xa2	; 0xa2 <__bad_interrupt>
  44:	0c 94 51 00 	jmp	0xa2	; 0xa2 <__bad_interrupt>
  48:	0c 94 51 00 	jmp	0xa2	; 0xa2 <__bad_interrupt>
  4c:	0c 94 51 00 	jmp	0xa2	; 0xa2 <__bad_interrupt>
  50:	0c 94 51 00 	jmp	0xa2	; 0xa2 <__bad_interrupt>
  54:	0c 94 51 00 	jmp	0xa2	; 0xa2 <__bad_interrupt>
  58:	0c 94 51 00 	jmp	0xa2	; 0xa2 <__bad_interrupt>
  5c:	0c 94 51 00 	jmp	0xa2	; 0xa2 <__bad_interrupt>
  60:	0c 94 51 00 	jmp	0xa2	; 0xa2 <__bad_interrupt>
  64:	0c 94 51 00 	jmp	0xa2	; 0xa2 <__bad_interrupt>

00000068 <__ctors_end>:
  68:	11 24       	eor	r1, r1
  6a:	1f be       	out	0x3f, r1	; 63
  6c:	cf ef       	ldi	r28, 0xFF	; 255
  6e:	d8 e0       	ldi	r29, 0x08	; 8
  70:	de bf       	out	0x3e, r29	; 62
  72:	cd bf       	out	0x3d, r28	; 61

00000074 <__do_copy_data>:
  74:	11 e0       	ldi	r17, 0x01	; 1
  76:	a0 e0       	ldi	r26, 0x00	; 0
  78:	b1 e0       	ldi	r27, 0x01	; 1
  7a:	ea ea       	ldi	r30, 0xAA	; 170
  7c:	ff e0       	ldi	r31, 0x0F	; 15
  7e:	02 c0       	rjmp	.+4      	; 0x84 <__do_copy_data+0x10>
  80:	05 90       	lpm	r0, Z+
  82:	0d 92       	st	X+, r0
  84:	a0 3f       	cpi	r26, 0xF0	; 240
  86:	b1 07       	cpc	r27, r17
  88:	d9 f7       	brne	.-10     	; 0x80 <__do_copy_data+0xc>

0000008a <__do_clear_bss>:
  8a:	22 e0       	ldi	r18, 0x02	; 2
  8c:	a0 ef       	ldi	r26, 0xF0	; 240
  8e:	b1 e0       	ldi	r27, 0x01	; 1
  90:	01 c0       	rjmp	.+2      	; 0x94 <.do_clear_bss_start>

00000092 <.do_clear_bss_loop>:
  92:	1d 92       	st	X+, r1

00000094 <.do_clear_bss_start>:
  94:	ae 31       	cpi	r26, 0x1E	; 30
  96:	b2 07       	cpc	r27, r18
  98:	e1 f7       	brne	.-8      	; 0x92 <.do_clear_bss_loop>
  9a:	0e 94 6f 04 	call	0x8de	; 0x8de <main>
  9e:	0c 94 d3 07 	jmp	0xfa6	; 0xfa6 <_exit>

000000a2 <__bad_interrupt>:
  a2:	0c 94 00 00 	jmp	0	; 0x0 <__vectors>

000000a6 <LCDBusyLoop>:
	//This function waits till lcd is BUSY

	uint8_t busy,status=0x00,temp;

	//Change Port to input type because we are reading data
	LCD_DATA_DDR&=(~(0x0f<<LCD_DATA_POS));
  a6:	8a b1       	in	r24, 0x0a	; 10
  a8:	80 7f       	andi	r24, 0xF0	; 240
  aa:	8a b9       	out	0x0a, r24	; 10

	//change LCD mode
	SET_RW();		//Read mode
  ac:	5e 9a       	sbi	0x0b, 6	; 11
	CLEAR_RS();		//Read status
  ae:	5d 98       	cbi	0x0b, 5	; 11
	#else
		//round up by default
		__ticks_dc = (uint32_t)(ceil(fabs(__tmp)));
	#endif

	__builtin_avr_delay_cycles(__ticks_dc);
  b0:	00 c0       	rjmp	.+0      	; 0xb2 <LCDBusyLoop+0xc>
  b2:	00 c0       	rjmp	.+0      	; 0xb4 <LCDBusyLoop+0xe>

	
	do
	{

		SET_E();
  b4:	5c 9a       	sbi	0x0b, 4	; 11
  b6:	00 c0       	rjmp	.+0      	; 0xb8 <LCDBusyLoop+0x12>
  b8:	00 c0       	rjmp	.+0      	; 0xba <LCDBusyLoop+0x14>

		//Wait tDA for data to become available
		_delay_us(0.5);

		status=(LCD_DATA_PIN>>LCD_DATA_POS);
  ba:	89 b1       	in	r24, 0x09	; 9
		status=status<<4;
  bc:	82 95       	swap	r24
  be:	80 7f       	andi	r24, 0xF0	; 240
  c0:	00 c0       	rjmp	.+0      	; 0xc2 <LCDBusyLoop+0x1c>
  c2:	00 c0       	rjmp	.+0      	; 0xc4 <LCDBusyLoop+0x1e>

		_delay_us(0.5);

		//Pull E low
		CLEAR_E();
  c4:	5c 98       	cbi	0x0b, 4	; 11
  c6:	92 e0       	ldi	r25, 0x02	; 2
  c8:	9a 95       	dec	r25
  ca:	f1 f7       	brne	.-4      	; 0xc8 <LCDBusyLoop+0x22>
  cc:	00 c0       	rjmp	.+0      	; 0xce <LCDBusyLoop+0x28>
		_delay_us(1);	//tEL

		SET_E();
  ce:	5c 9a       	sbi	0x0b, 4	; 11
  d0:	00 c0       	rjmp	.+0      	; 0xd2 <LCDBusyLoop+0x2c>
  d2:	00 c0       	rjmp	.+0      	; 0xd4 <LCDBusyLoop+0x2e>
		_delay_us(0.5);

		temp=(LCD_DATA_PIN>>LCD_DATA_POS);
  d4:	99 b1       	in	r25, 0x09	; 9
  d6:	00 c0       	rjmp	.+0      	; 0xd8 <LCDBusyLoop+0x32>
  d8:	00 c0       	rjmp	.+0      	; 0xda <LCDBusyLoop+0x34>
		status=status|temp;

		busy=status & 0b10000000;

		_delay_us(0.5);
		CLEAR_E();
  da:	5c 98       	cbi	0x0b, 4	; 11
  dc:	92 e0       	ldi	r25, 0x02	; 2
  de:	9a 95       	dec	r25
  e0:	f1 f7       	brne	.-4      	; 0xde <LCDBusyLoop+0x38>
  e2:	00 c0       	rjmp	.+0      	; 0xe4 <LCDBusyLoop+0x3e>
		_delay_us(1);	//tEL
	}while(busy);
  e4:	87 fd       	sbrc	r24, 7
  e6:	e6 cf       	rjmp	.-52     	; 0xb4 <LCDBusyLoop+0xe>

	CLEAR_RW();		//write mode
  e8:	5e 98       	cbi	0x0b, 6	; 11
	//Change Port to output
	LCD_DATA_DDR|=(0x0F<<LCD_DATA_POS);
  ea:	8a b1       	in	r24, 0x0a	; 10
  ec:	8f 60       	ori	r24, 0x0F	; 15
  ee:	8a b9       	out	0x0a, r24	; 10
  f0:	08 95       	ret

000000f2 <LCDByte>:
//NOTE: THIS FUNCTION RETURS ONLY WHEN LCD HAS PROCESSED THE COMMAND

uint8_t hn,ln;			//Nibbles
uint8_t temp;

hn=c>>4;
  f2:	38 2f       	mov	r19, r24
  f4:	32 95       	swap	r19
  f6:	3f 70       	andi	r19, 0x0F	; 15
ln=(c & 0x0F);
  f8:	28 2f       	mov	r18, r24
  fa:	2f 70       	andi	r18, 0x0F	; 15

if(isdata==0)
  fc:	61 11       	cpse	r22, r1
  fe:	21 c0       	rjmp	.+66     	; 0x142 <LCDByte+0x50>
	CLEAR_RS();
 100:	5d 98       	cbi	0x0b, 5	; 11
 102:	00 c0       	rjmp	.+0      	; 0x104 <LCDByte+0x12>
 104:	00 c0       	rjmp	.+0      	; 0x106 <LCDByte+0x14>
else
	SET_RS();

_delay_us(0.500);		//tAS

SET_E();
 106:	5c 9a       	sbi	0x0b, 4	; 11

//Send high nibble

temp=(LCD_DATA_PORT & (~(0X0F<<LCD_DATA_POS)))|((hn<<LCD_DATA_POS));
 108:	9b b1       	in	r25, 0x0b	; 11
 10a:	90 7f       	andi	r25, 0xF0	; 240
 10c:	93 2b       	or	r25, r19
LCD_DATA_PORT=temp;
 10e:	9b b9       	out	0x0b, r25	; 11
 110:	82 e0       	ldi	r24, 0x02	; 2
 112:	8a 95       	dec	r24
 114:	f1 f7       	brne	.-4      	; 0x112 <LCDByte+0x20>
 116:	00 c0       	rjmp	.+0      	; 0x118 <LCDByte+0x26>

_delay_us(1);			//tEH

//Now data lines are stable pull E low for transmission

CLEAR_E();
 118:	5c 98       	cbi	0x0b, 4	; 11
 11a:	82 e0       	ldi	r24, 0x02	; 2
 11c:	8a 95       	dec	r24
 11e:	f1 f7       	brne	.-4      	; 0x11c <LCDByte+0x2a>
 120:	00 c0       	rjmp	.+0      	; 0x122 <LCDByte+0x30>

_delay_us(1);

//Send the lower nibble
SET_E();
 122:	5c 9a       	sbi	0x0b, 4	; 11

temp=(LCD_DATA_PORT & (~(0X0F<<LCD_DATA_POS)))|((ln<<LCD_DATA_POS));
 124:	8b b1       	in	r24, 0x0b	; 11
 126:	80 7f       	andi	r24, 0xF0	; 240
 128:	82 2b       	or	r24, r18

LCD_DATA_PORT=temp;
 12a:	8b b9       	out	0x0b, r24	; 11
 12c:	82 e0       	ldi	r24, 0x02	; 2
 12e:	8a 95       	dec	r24
 130:	f1 f7       	brne	.-4      	; 0x12e <LCDByte+0x3c>
 132:	00 c0       	rjmp	.+0      	; 0x134 <LCDByte+0x42>

_delay_us(1);			//tEH

//SEND

CLEAR_E();
 134:	5c 98       	cbi	0x0b, 4	; 11
 136:	82 e0       	ldi	r24, 0x02	; 2
 138:	8a 95       	dec	r24
 13a:	f1 f7       	brne	.-4      	; 0x138 <LCDByte+0x46>
 13c:	00 c0       	rjmp	.+0      	; 0x13e <LCDByte+0x4c>

_delay_us(1);			//tEL

LCDBusyLoop();
 13e:	0c 94 53 00 	jmp	0xa6	; 0xa6 <LCDBusyLoop>
ln=(c & 0x0F);

if(isdata==0)
	CLEAR_RS();
else
	SET_RS();
 142:	5d 9a       	sbi	0x0b, 5	; 11
 144:	de cf       	rjmp	.-68     	; 0x102 <LCDByte+0x10>

00000146 <LCDInit>:
	LCD_DATA_DDR|=(0x0F<<LCD_DATA_POS);

}

void LCDInit(uint8_t style)
{
 146:	cf 93       	push	r28
 148:	c8 2f       	mov	r28, r24
	#else
		//round up by default
		__ticks_dc = (uint32_t)(ceil(fabs(__tmp)));
	#endif

	__builtin_avr_delay_cycles(__ticks_dc);
 14a:	8f e5       	ldi	r24, 0x5F	; 95
 14c:	9a ee       	ldi	r25, 0xEA	; 234
 14e:	01 97       	sbiw	r24, 0x01	; 1
 150:	f1 f7       	brne	.-4      	; 0x14e <LCDInit+0x8>
 152:	00 c0       	rjmp	.+0      	; 0x154 <LCDInit+0xe>
 154:	00 00       	nop
	
	//After power on Wait for LCD to Initialize
	_delay_ms(30);
	
	//Set IO Ports
	LCD_DATA_DDR|=(0x0F<<LCD_DATA_POS);
 156:	8a b1       	in	r24, 0x0a	; 10
 158:	8f 60       	ori	r24, 0x0F	; 15
 15a:	8a b9       	out	0x0a, r24	; 10
	LCD_E_DDR|=(1<<LCD_E_POS);
 15c:	54 9a       	sbi	0x0a, 4	; 10
	LCD_RS_DDR|=(1<<LCD_RS_POS);
 15e:	55 9a       	sbi	0x0a, 5	; 10
	LCD_RW_DDR|=(1<<LCD_RW_POS);
 160:	56 9a       	sbi	0x0a, 6	; 10

	LCD_DATA_PORT&=(~(0x0F<<LCD_DATA_POS));
 162:	8b b1       	in	r24, 0x0b	; 11
 164:	80 7f       	andi	r24, 0xF0	; 240
 166:	8b b9       	out	0x0b, r24	; 11
	CLEAR_E();
 168:	5c 98       	cbi	0x0b, 4	; 11
	CLEAR_RW();
 16a:	5e 98       	cbi	0x0b, 6	; 11
	CLEAR_RS();
 16c:	5d 98       	cbi	0x0b, 5	; 11
	#else
		//round up by default
		__ticks_dc = (uint32_t)(ceil(fabs(__tmp)));
	#endif

	__builtin_avr_delay_cycles(__ticks_dc);
 16e:	00 c0       	rjmp	.+0      	; 0x170 <LCDInit+0x2a>
 170:	00 00       	nop

	//Set 4-bit mode
	_delay_us(0.3);	//tAS

	SET_E();
 172:	5c 9a       	sbi	0x0b, 4	; 11
	LCD_DATA_PORT|=((0b00000010)<<LCD_DATA_POS); //[B] To transfer 0b00100000 i was using LCD_DATA_PORT|=0b00100000
 174:	59 9a       	sbi	0x0b, 1	; 11
 176:	92 e0       	ldi	r25, 0x02	; 2
 178:	9a 95       	dec	r25
 17a:	f1 f7       	brne	.-4      	; 0x178 <LCDInit+0x32>
 17c:	00 c0       	rjmp	.+0      	; 0x17e <LCDInit+0x38>
	_delay_us(1);
	CLEAR_E();
 17e:	5c 98       	cbi	0x0b, 4	; 11
 180:	82 e0       	ldi	r24, 0x02	; 2
 182:	8a 95       	dec	r24
 184:	f1 f7       	brne	.-4      	; 0x182 <LCDInit+0x3c>
 186:	00 c0       	rjmp	.+0      	; 0x188 <LCDInit+0x42>
	_delay_us(1);
	
	//Wait for LCD to execute the Functionset Command
	LCDBusyLoop();                                    //[B] Forgot this delay
 188:	0e 94 53 00 	call	0xa6	; 0xa6 <LCDBusyLoop>

	//Now the LCD is in 4-bit mode

	LCDCmd(0b00001100|style);	//Display On
 18c:	60 e0       	ldi	r22, 0x00	; 0
 18e:	8c 2f       	mov	r24, r28
 190:	8c 60       	ori	r24, 0x0C	; 12
 192:	0e 94 79 00 	call	0xf2	; 0xf2 <LCDByte>
	LCDCmd(0b00101000);			//function set 4-bit,2 line 5x7 dot format
 196:	60 e0       	ldi	r22, 0x00	; 0
 198:	88 e2       	ldi	r24, 0x28	; 40
 19a:	0e 94 79 00 	call	0xf2	; 0xf2 <LCDByte>
	}

	#endif

	x|=0b10000000;
  	LCDCmd(x);
 19e:	60 e0       	ldi	r22, 0x00	; 0
 1a0:	80 e8       	ldi	r24, 0x80	; 128
	LCDCmd(0b00101000);			//function set 4-bit,2 line 5x7 dot format

	
	LCDGotoXY(0,0);

}
 1a2:	cf 91       	pop	r28
	}

	#endif

	x|=0b10000000;
  	LCDCmd(x);
 1a4:	0c 94 79 00 	jmp	0xf2	; 0xf2 <LCDByte>

000001a8 <LCDWriteString>:
	
	LCDGotoXY(0,0);

}
void LCDWriteString(const char *msg)
{
 1a8:	0f 93       	push	r16
 1aa:	1f 93       	push	r17
 1ac:	cf 93       	push	r28
 1ae:	df 93       	push	r29
 1b0:	ec 01       	movw	r28, r24
		
	In the same way you can insert any syblom numbered 0-7 	


	*****************************************************************/
 while(*msg!='\0')
 1b2:	88 81       	ld	r24, Y
 1b4:	81 11       	cpse	r24, r1
 1b6:	05 c0       	rjmp	.+10     	; 0x1c2 <LCDWriteString+0x1a>
	{
		LCDData(*msg);
	}
	msg++;
 }
}
 1b8:	df 91       	pop	r29
 1ba:	cf 91       	pop	r28
 1bc:	1f 91       	pop	r17
 1be:	0f 91       	pop	r16
 1c0:	08 95       	ret

	*****************************************************************/
 while(*msg!='\0')
 {
 	//Custom Char Support
	if(*msg=='%')
 1c2:	85 32       	cpi	r24, 0x25	; 37
 1c4:	99 f4       	brne	.+38     	; 0x1ec <LCDWriteString+0x44>
	{
		msg++;
 1c6:	8e 01       	movw	r16, r28
 1c8:	0f 5f       	subi	r16, 0xFF	; 255
 1ca:	1f 4f       	sbci	r17, 0xFF	; 255
		int8_t cc=*msg-'0';
 1cc:	89 81       	ldd	r24, Y+1	; 0x01
 1ce:	80 53       	subi	r24, 0x30	; 48

		if(cc>=0 && cc<=7)
		{
			LCDData(cc);
 1d0:	61 e0       	ldi	r22, 0x01	; 1
	if(*msg=='%')
	{
		msg++;
		int8_t cc=*msg-'0';

		if(cc>=0 && cc<=7)
 1d2:	88 30       	cpi	r24, 0x08	; 8
 1d4:	28 f4       	brcc	.+10     	; 0x1e0 <LCDWriteString+0x38>
			LCDData(cc);
		}
		else
		{
			LCDData('%');
			LCDData(*msg);
 1d6:	0e 94 79 00 	call	0xf2	; 0xf2 <LCDByte>
	}
	else
	{
		LCDData(*msg);
	}
	msg++;
 1da:	e8 01       	movw	r28, r16
 1dc:	21 96       	adiw	r28, 0x01	; 1
 1de:	e9 cf       	rjmp	.-46     	; 0x1b2 <LCDWriteString+0xa>
		{
			LCDData(cc);
		}
		else
		{
			LCDData('%');
 1e0:	85 e2       	ldi	r24, 0x25	; 37
 1e2:	0e 94 79 00 	call	0xf2	; 0xf2 <LCDByte>
			LCDData(*msg);
 1e6:	61 e0       	ldi	r22, 0x01	; 1
 1e8:	89 81       	ldd	r24, Y+1	; 0x01
 1ea:	f5 cf       	rjmp	.-22     	; 0x1d6 <LCDWriteString+0x2e>
		}
	}
	else
	{
		LCDData(*msg);
 1ec:	61 e0       	ldi	r22, 0x01	; 1
 1ee:	0e 94 79 00 	call	0xf2	; 0xf2 <LCDByte>
 1f2:	8e 01       	movw	r16, r28
 1f4:	f2 cf       	rjmp	.-28     	; 0x1da <LCDWriteString+0x32>

000001f6 <LCDWriteInt>:
	msg++;
 }
}

void LCDWriteInt(int val,unsigned int field_length)
{
 1f6:	ef 92       	push	r14
 1f8:	ff 92       	push	r15
 1fa:	0f 93       	push	r16
 1fc:	1f 93       	push	r17
 1fe:	cf 93       	push	r28
 200:	df 93       	push	r29
 202:	00 d0       	rcall	.+0      	; 0x204 <LCDWriteInt+0xe>
 204:	00 d0       	rcall	.+0      	; 0x206 <LCDWriteInt+0x10>
 206:	1f 92       	push	r1
 208:	cd b7       	in	r28, 0x3d	; 61
 20a:	de b7       	in	r29, 0x3e	; 62
 20c:	9b 01       	movw	r18, r22
	2)unsigned int field_length :total length of field in which the value is printed
	must be between 1-5 if it is -1 the field length is no of digits in the val

	****************************************************************/

	char str[5]={0,0,0,0,0};
 20e:	ae 01       	movw	r20, r28
 210:	4f 5f       	subi	r20, 0xFF	; 255
 212:	5f 4f       	sbci	r21, 0xFF	; 255
 214:	7a 01       	movw	r14, r20
 216:	45 e0       	ldi	r20, 0x05	; 5
 218:	f7 01       	movw	r30, r14
 21a:	11 92       	st	Z+, r1
 21c:	4a 95       	dec	r20
 21e:	e9 f7       	brne	.-6      	; 0x21a <LCDWriteInt+0x24>
 220:	fe 01       	movw	r30, r28
 222:	36 96       	adiw	r30, 0x06	; 6
	int i=4,j=0;
	while(val)
	{
	str[i]=val%10;
 224:	0a e0       	ldi	r16, 0x0A	; 10
 226:	10 e0       	ldi	r17, 0x00	; 0

	****************************************************************/

	char str[5]={0,0,0,0,0};
	int i=4,j=0;
	while(val)
 228:	00 97       	sbiw	r24, 0x00	; 0
 22a:	f1 f4       	brne	.+60     	; 0x268 <LCDWriteInt+0x72>
	{
	str[i]=val%10;
	val=val/10;
	i--;
	}
	if(field_length==-1)
 22c:	2f 3f       	cpi	r18, 0xFF	; 255
 22e:	ff ef       	ldi	r31, 0xFF	; 255
 230:	3f 07       	cpc	r19, r31
 232:	01 f5       	brne	.+64     	; 0x274 <LCDWriteInt+0x7e>
 234:	f7 01       	movw	r30, r14
 236:	8f 01       	movw	r16, r30
 238:	0e 19       	sub	r16, r14
 23a:	1f 09       	sbc	r17, r15
		while(str[j]==0) j++;
 23c:	81 91       	ld	r24, Z+
 23e:	88 23       	and	r24, r24
 240:	d1 f3       	breq	.-12     	; 0x236 <LCDWriteInt+0x40>
 242:	0e 0d       	add	r16, r14
 244:	1f 1d       	adc	r17, r15
	else
		j=5-field_length;

	if(val<0) LCDData('-');
	for(i=j;i<5;i++)
 246:	c8 01       	movw	r24, r16
 248:	8e 19       	sub	r24, r14
 24a:	9f 09       	sbc	r25, r15
 24c:	05 97       	sbiw	r24, 0x05	; 5
 24e:	bc f0       	brlt	.+46     	; 0x27e <LCDWriteInt+0x88>
	{
	LCDData(48+str[i]);
	}
}
 250:	0f 90       	pop	r0
 252:	0f 90       	pop	r0
 254:	0f 90       	pop	r0
 256:	0f 90       	pop	r0
 258:	0f 90       	pop	r0
 25a:	df 91       	pop	r29
 25c:	cf 91       	pop	r28
 25e:	1f 91       	pop	r17
 260:	0f 91       	pop	r16
 262:	ff 90       	pop	r15
 264:	ef 90       	pop	r14
 266:	08 95       	ret

	char str[5]={0,0,0,0,0};
	int i=4,j=0;
	while(val)
	{
	str[i]=val%10;
 268:	b8 01       	movw	r22, r16
 26a:	0e 94 82 07 	call	0xf04	; 0xf04 <__divmodhi4>
 26e:	82 93       	st	-Z, r24
	val=val/10;
 270:	cb 01       	movw	r24, r22
 272:	da cf       	rjmp	.-76     	; 0x228 <LCDWriteInt+0x32>
	i--;
	}
	if(field_length==-1)
		while(str[j]==0) j++;
	else
		j=5-field_length;
 274:	05 e0       	ldi	r16, 0x05	; 5
 276:	10 e0       	ldi	r17, 0x00	; 0
 278:	02 1b       	sub	r16, r18
 27a:	13 0b       	sbc	r17, r19
 27c:	e2 cf       	rjmp	.-60     	; 0x242 <LCDWriteInt+0x4c>

	if(val<0) LCDData('-');
	for(i=j;i<5;i++)
	{
	LCDData(48+str[i]);
 27e:	f8 01       	movw	r30, r16
 280:	81 91       	ld	r24, Z+
 282:	8f 01       	movw	r16, r30
 284:	61 e0       	ldi	r22, 0x01	; 1
 286:	80 5d       	subi	r24, 0xD0	; 208
 288:	0e 94 79 00 	call	0xf2	; 0xf2 <LCDByte>
 28c:	dc cf       	rjmp	.-72     	; 0x246 <LCDWriteInt+0x50>

0000028e <LCDGotoXY>:
	}
}
void LCDGotoXY(uint8_t x,uint8_t y)
{
 	if(x>=20) return;
 28e:	84 31       	cpi	r24, 0x14	; 20
 290:	78 f4       	brcc	.+30     	; 0x2b0 <LCDGotoXY+0x22>

	#ifdef LCD_TYPE_204
	
	switch(y)
 292:	62 30       	cpi	r22, 0x02	; 2
 294:	49 f0       	breq	.+18     	; 0x2a8 <LCDGotoXY+0x1a>
 296:	63 30       	cpi	r22, 0x03	; 3
 298:	49 f0       	breq	.+18     	; 0x2ac <LCDGotoXY+0x1e>
 29a:	61 30       	cpi	r22, 0x01	; 1
 29c:	09 f4       	brne	.+2      	; 0x2a0 <LCDGotoXY+0x12>
	{
		case 0:
			break;
		case 1:
			x|=0b01000000;
 29e:	80 64       	ori	r24, 0x40	; 64
	}

	#endif

	x|=0b10000000;
  	LCDCmd(x);
 2a0:	60 e0       	ldi	r22, 0x00	; 0
 2a2:	80 68       	ori	r24, 0x80	; 128
 2a4:	0c 94 79 00 	jmp	0xf2	; 0xf2 <LCDByte>
			break;
		case 1:
			x|=0b01000000;
			break;
		case 2:
			x+=0x14;
 2a8:	8c 5e       	subi	r24, 0xEC	; 236
 2aa:	fa cf       	rjmp	.-12     	; 0x2a0 <LCDGotoXY+0x12>
			break;
		case 3:
			x+=0x54;
 2ac:	8c 5a       	subi	r24, 0xAC	; 172
 2ae:	f8 cf       	rjmp	.-16     	; 0x2a0 <LCDGotoXY+0x12>
 2b0:	08 95       	ret

000002b2 <LCDHexDumpXY>:
}



void LCDHexDumpXY(uint8_t x, uint8_t y,uint8_t d)
{
 2b2:	cf 93       	push	r28
 2b4:	c4 2f       	mov	r28, r20
	LCDGotoXY(x,y);
 2b6:	0e 94 47 01 	call	0x28e	; 0x28e <LCDGotoXY>
	uint8_t byte = '0';
	(((d>>4)&0x0F)<=9) ? (byte='0'+((d>>4)&0x0F)) : (byte='A'+ ((d>>4)&0x0F)-0x0A);
 2ba:	8c 2f       	mov	r24, r28
 2bc:	82 95       	swap	r24
 2be:	8f 70       	andi	r24, 0x0F	; 15
 2c0:	8a 30       	cpi	r24, 0x0A	; 10
 2c2:	88 f4       	brcc	.+34     	; 0x2e6 <LCDHexDumpXY+0x34>
 2c4:	80 5d       	subi	r24, 0xD0	; 208
	LCDByte(byte,1);
 2c6:	61 e0       	ldi	r22, 0x01	; 1
 2c8:	0e 94 79 00 	call	0xf2	; 0xf2 <LCDByte>
	LCDBusyLoop();
 2cc:	0e 94 53 00 	call	0xa6	; 0xa6 <LCDBusyLoop>
 2d0:	8c 2f       	mov	r24, r28
 2d2:	8f 70       	andi	r24, 0x0F	; 15
	
	((d&0x0F)<=9) ? (byte='0'+ (d&0x0F)) : (byte='A'+ (d&0x0F)-0x0A);
 2d4:	8a 30       	cpi	r24, 0x0A	; 10
 2d6:	48 f4       	brcc	.+18     	; 0x2ea <LCDHexDumpXY+0x38>
 2d8:	80 5d       	subi	r24, 0xD0	; 208
	LCDByte(byte,1);
 2da:	61 e0       	ldi	r22, 0x01	; 1
 2dc:	0e 94 79 00 	call	0xf2	; 0xf2 <LCDByte>
	LCDBusyLoop();
}
 2e0:	cf 91       	pop	r28
	LCDByte(byte,1);
	LCDBusyLoop();
	
	((d&0x0F)<=9) ? (byte='0'+ (d&0x0F)) : (byte='A'+ (d&0x0F)-0x0A);
	LCDByte(byte,1);
	LCDBusyLoop();
 2e2:	0c 94 53 00 	jmp	0xa6	; 0xa6 <LCDBusyLoop>

void LCDHexDumpXY(uint8_t x, uint8_t y,uint8_t d)
{
	LCDGotoXY(x,y);
	uint8_t byte = '0';
	(((d>>4)&0x0F)<=9) ? (byte='0'+((d>>4)&0x0F)) : (byte='A'+ ((d>>4)&0x0F)-0x0A);
 2e6:	89 5c       	subi	r24, 0xC9	; 201
 2e8:	ee cf       	rjmp	.-36     	; 0x2c6 <LCDHexDumpXY+0x14>
	LCDByte(byte,1);
	LCDBusyLoop();
	
	((d&0x0F)<=9) ? (byte='0'+ (d&0x0F)) : (byte='A'+ (d&0x0F)-0x0A);
 2ea:	89 5c       	subi	r24, 0xC9	; 201
 2ec:	f6 cf       	rjmp	.-20     	; 0x2da <LCDHexDumpXY+0x28>

000002ee <initServo>:
    //            //make A5 output.
    //            *ddr=BV(pin);      // PORTC declared as output 0xFF is all output 11111 so i have 8 bits i can set and 8 leds....
    //            *port=BV(pin);     // PORTC is initially LOW OFF the led initially /
    //to do make the register parameter work
    
    DDRC = BV(5);
 2ee:	90 e2       	ldi	r25, 0x20	; 32
 2f0:	97 b9       	out	0x07, r25	; 7
    //set to closed position
    PORTC = (BV(5));
 2f2:	98 b9       	out	0x08, r25	; 8
 2f4:	ef ec       	ldi	r30, 0xCF	; 207
 2f6:	f7 e0       	ldi	r31, 0x07	; 7
 2f8:	31 97       	sbiw	r30, 0x01	; 1
 2fa:	f1 f7       	brne	.-4      	; 0x2f8 <initServo+0xa>
 2fc:	00 c0       	rjmp	.+0      	; 0x2fe <initServo+0x10>
 2fe:	00 00       	nop
    _delay_us(1000);
    PORTC   ^=BV(5);
 300:	88 b1       	in	r24, 0x08	; 8
 302:	89 27       	eor	r24, r25
 304:	88 b9       	out	0x08, r24	; 8
 306:	8f e6       	ldi	r24, 0x6F	; 111
 308:	94 e9       	ldi	r25, 0x94	; 148
 30a:	01 97       	sbiw	r24, 0x01	; 1
 30c:	f1 f7       	brne	.-4      	; 0x30a <initServo+0x1c>
 30e:	00 c0       	rjmp	.+0      	; 0x310 <initServo+0x22>
 310:	00 00       	nop
 312:	08 95       	ret

00000314 <initLED>:
    _delay_us(19000); //remember that total period is 2ms or 2k micros and you need to do it this way because of standard 50hz servo
    
}

void initLED(void){
    DDRC = BV(ledG);
 314:	24 e0       	ldi	r18, 0x04	; 4
 316:	27 b9       	out	0x07, r18	; 7
    DDRC = BV(ledR); //output
 318:	92 e0       	ldi	r25, 0x02	; 2
 31a:	97 b9       	out	0x07, r25	; 7
	#else
		//round up by default
		__ticks_dc = (uint32_t)(ceil(fabs(__tmp)));
	#endif

	__builtin_avr_delay_cycles(__ticks_dc);
 31c:	3f ef       	ldi	r19, 0xFF	; 255
 31e:	42 e5       	ldi	r20, 0x52	; 82
 320:	87 e0       	ldi	r24, 0x07	; 7
 322:	31 50       	subi	r19, 0x01	; 1
 324:	40 40       	sbci	r20, 0x00	; 0
 326:	80 40       	sbci	r24, 0x00	; 0
 328:	e1 f7       	brne	.-8      	; 0x322 <initLED+0xe>
 32a:	00 c0       	rjmp	.+0      	; 0x32c <initLED+0x18>
 32c:	00 00       	nop

    _delay_ms(300);
    PORTC = BV(ledG);
 32e:	28 b9       	out	0x08, r18	; 8
 330:	3f ef       	ldi	r19, 0xFF	; 255
 332:	41 ee       	ldi	r20, 0xE1	; 225
 334:	84 e0       	ldi	r24, 0x04	; 4
 336:	31 50       	subi	r19, 0x01	; 1
 338:	40 40       	sbci	r20, 0x00	; 0
 33a:	80 40       	sbci	r24, 0x00	; 0
 33c:	e1 f7       	brne	.-8      	; 0x336 <initLED+0x22>
 33e:	00 c0       	rjmp	.+0      	; 0x340 <initLED+0x2c>
 340:	00 00       	nop
    _delay_ms(200);
    PORTC ^= BV(ledG);
 342:	88 b1       	in	r24, 0x08	; 8
 344:	82 27       	eor	r24, r18
 346:	88 b9       	out	0x08, r24	; 8
 348:	2f ef       	ldi	r18, 0xFF	; 255
 34a:	32 e5       	ldi	r19, 0x52	; 82
 34c:	47 e0       	ldi	r20, 0x07	; 7
 34e:	21 50       	subi	r18, 0x01	; 1
 350:	30 40       	sbci	r19, 0x00	; 0
 352:	40 40       	sbci	r20, 0x00	; 0
 354:	e1 f7       	brne	.-8      	; 0x34e <initLED+0x3a>
 356:	00 c0       	rjmp	.+0      	; 0x358 <initLED+0x44>
 358:	00 00       	nop
    
    _delay_ms(300);
    PORTC = BV(ledR);
 35a:	98 b9       	out	0x08, r25	; 8
 35c:	8f ef       	ldi	r24, 0xFF	; 255
 35e:	21 ee       	ldi	r18, 0xE1	; 225
 360:	34 e0       	ldi	r19, 0x04	; 4
 362:	81 50       	subi	r24, 0x01	; 1
 364:	20 40       	sbci	r18, 0x00	; 0
 366:	30 40       	sbci	r19, 0x00	; 0
 368:	e1 f7       	brne	.-8      	; 0x362 <initLED+0x4e>
 36a:	00 c0       	rjmp	.+0      	; 0x36c <initLED+0x58>
 36c:	00 00       	nop
    _delay_ms(200);
    PORTC ^= BV(ledR);
 36e:	88 b1       	in	r24, 0x08	; 8
 370:	89 27       	eor	r24, r25
 372:	88 b9       	out	0x08, r24	; 8
 374:	08 95       	ret

00000376 <addQ>:
    
    
}

int addQ(int str[], int ADD[]){
 376:	dc 01       	movw	r26, r24
 378:	12 96       	adiw	r26, 0x02	; 2
 37a:	fb 01       	movw	r30, r22
 37c:	32 96       	adiw	r30, 0x02	; 2
 37e:	0c 96       	adiw	r24, 0x0c	; 12
    for(int i=1; i<=5; i++){
        if(str[i] != ADD[i])
 380:	4d 91       	ld	r20, X+
 382:	5d 91       	ld	r21, X+
 384:	21 91       	ld	r18, Z+
 386:	31 91       	ld	r19, Z+
 388:	42 17       	cp	r20, r18
 38a:	53 07       	cpc	r21, r19
 38c:	31 f4       	brne	.+12     	; 0x39a <addQ+0x24>
    
    
}

int addQ(int str[], int ADD[]){
    for(int i=1; i<=5; i++){
 38e:	a8 17       	cp	r26, r24
 390:	b9 07       	cpc	r27, r25
 392:	b1 f7       	brne	.-20     	; 0x380 <addQ+0xa>
        if(str[i] != ADD[i])
            return -1;
    }
    return 0;
 394:	80 e0       	ldi	r24, 0x00	; 0
 396:	90 e0       	ldi	r25, 0x00	; 0
 398:	08 95       	ret
}

int addQ(int str[], int ADD[]){
    for(int i=1; i<=5; i++){
        if(str[i] != ADD[i])
            return -1;
 39a:	8f ef       	ldi	r24, 0xFF	; 255
 39c:	9f ef       	ldi	r25, 0xFF	; 255
    }
    return 0;
}
 39e:	08 95       	ret

000003a0 <addTag>:
unsigned int EEMEM tag[5]= {0,0,0,0,0};
//unsigned int EEMEM tag2[5]= {0,0,0,0,0};
unsigned int ram_tag[5]; //this is where we write the read tag to the stack will be str[] array.

//to do int tagNumber)
void addTag(int str[], int tagNumber){
 3a0:	df 92       	push	r13
 3a2:	ef 92       	push	r14
 3a4:	ff 92       	push	r15
 3a6:	0f 93       	push	r16
 3a8:	1f 93       	push	r17
 3aa:	cf 93       	push	r28
 3ac:	df 93       	push	r29
    if(tagNumber ==1){
 3ae:	61 30       	cpi	r22, 0x01	; 1
 3b0:	71 05       	cpc	r23, r1
 3b2:	51 f5       	brne	.+84     	; 0x408 <addTag+0x68>
 3b4:	8c 01       	movw	r16, r24
 3b6:	0e 5f       	subi	r16, 0xFE	; 254
 3b8:	1f 4f       	sbci	r17, 0xFF	; 255
 3ba:	3c ef       	ldi	r19, 0xFC	; 252
 3bc:	e3 2e       	mov	r14, r19
 3be:	31 e0       	ldi	r19, 0x01	; 1
 3c0:	f3 2e       	mov	r15, r19
 3c2:	ec 01       	movw	r28, r24
 3c4:	2c 96       	adiw	r28, 0x0c	; 12
        for(int i=1; i<=5; i++){
            write_eeprom_word(tag1[i], str[i]);
            PORTC = BV(ledG);
 3c6:	44 e0       	ldi	r20, 0x04	; 4
 3c8:	d4 2e       	mov	r13, r20

//to do int tagNumber)
void addTag(int str[], int tagNumber){
    if(tagNumber ==1){
        for(int i=1; i<=5; i++){
            write_eeprom_word(tag1[i], str[i]);
 3ca:	f8 01       	movw	r30, r16
 3cc:	61 91       	ld	r22, Z+
 3ce:	71 91       	ld	r23, Z+
 3d0:	8f 01       	movw	r16, r30
 3d2:	f7 01       	movw	r30, r14
 3d4:	81 91       	ld	r24, Z+
 3d6:	7f 01       	movw	r14, r30
 3d8:	90 e0       	ldi	r25, 0x00	; 0
 3da:	0e 94 b0 07 	call	0xf60	; 0xf60 <eeprom_write_word>
            PORTC = BV(ledG);
 3de:	d8 b8       	out	0x08, r13	; 8
 3e0:	ff ef       	ldi	r31, 0xFF	; 255
 3e2:	20 e7       	ldi	r18, 0x70	; 112
 3e4:	82 e0       	ldi	r24, 0x02	; 2
 3e6:	f1 50       	subi	r31, 0x01	; 1
 3e8:	20 40       	sbci	r18, 0x00	; 0
 3ea:	80 40       	sbci	r24, 0x00	; 0
 3ec:	e1 f7       	brne	.-8      	; 0x3e6 <addTag+0x46>
 3ee:	00 c0       	rjmp	.+0      	; 0x3f0 <addTag+0x50>
 3f0:	00 00       	nop
unsigned int ram_tag[5]; //this is where we write the read tag to the stack will be str[] array.

//to do int tagNumber)
void addTag(int str[], int tagNumber){
    if(tagNumber ==1){
        for(int i=1; i<=5; i++){
 3f2:	c0 17       	cp	r28, r16
 3f4:	d1 07       	cpc	r29, r17
 3f6:	49 f7       	brne	.-46     	; 0x3ca <addTag+0x2a>
        for(int i=1; i<=5; i++){
            write_eeprom_word(tag2[i], str[i]);
        }
        tagNumber++; //incriment so we can keep track if we have room or not
    }
}
 3f8:	df 91       	pop	r29
 3fa:	cf 91       	pop	r28
 3fc:	1f 91       	pop	r17
 3fe:	0f 91       	pop	r16
 400:	ff 90       	pop	r15
 402:	ef 90       	pop	r14
 404:	df 90       	pop	r13
 406:	08 95       	ret
            PORTC = BV(ledG);
            _delay_ms(100);
        }
        tagNumber++;
    }
    else if(tagNumber ==2){
 408:	62 30       	cpi	r22, 0x02	; 2
 40a:	71 05       	cpc	r23, r1
 40c:	a9 f7       	brne	.-22     	; 0x3f8 <addTag+0x58>
 40e:	8c 01       	movw	r16, r24
 410:	0e 5f       	subi	r16, 0xFE	; 254
 412:	1f 4f       	sbci	r17, 0xFF	; 255
 414:	26 e0       	ldi	r18, 0x06	; 6
 416:	e2 2e       	mov	r14, r18
 418:	22 e0       	ldi	r18, 0x02	; 2
 41a:	f2 2e       	mov	r15, r18
 41c:	ec 01       	movw	r28, r24
 41e:	2c 96       	adiw	r28, 0x0c	; 12
        for(int i=1; i<=5; i++){
            write_eeprom_word(tag2[i], str[i]);
 420:	f8 01       	movw	r30, r16
 422:	61 91       	ld	r22, Z+
 424:	71 91       	ld	r23, Z+
 426:	8f 01       	movw	r16, r30
 428:	f7 01       	movw	r30, r14
 42a:	81 91       	ld	r24, Z+
 42c:	7f 01       	movw	r14, r30
 42e:	90 e0       	ldi	r25, 0x00	; 0
 430:	0e 94 b0 07 	call	0xf60	; 0xf60 <eeprom_write_word>
            _delay_ms(100);
        }
        tagNumber++;
    }
    else if(tagNumber ==2){
        for(int i=1; i<=5; i++){
 434:	0c 17       	cp	r16, r28
 436:	1d 07       	cpc	r17, r29
 438:	99 f7       	brne	.-26     	; 0x420 <addTag+0x80>
 43a:	de cf       	rjmp	.-68     	; 0x3f8 <addTag+0x58>

0000043c <open>:

*/

int open(void){
    
    PORTC = (BV(5));
 43c:	90 e2       	ldi	r25, 0x20	; 32
 43e:	98 b9       	out	0x08, r25	; 8
	#else
		//round up by default
		__ticks_dc = (uint32_t)(ceil(fabs(__tmp)));
	#endif

	__builtin_avr_delay_cycles(__ticks_dc);
 440:	ef e9       	ldi	r30, 0x9F	; 159
 442:	ff e0       	ldi	r31, 0x0F	; 15
 444:	31 97       	sbiw	r30, 0x01	; 1
 446:	f1 f7       	brne	.-4      	; 0x444 <open+0x8>
 448:	00 c0       	rjmp	.+0      	; 0x44a <open+0xe>
 44a:	00 00       	nop
    _delay_us(2000);
    PORTC  ^=BV(5);
 44c:	88 b1       	in	r24, 0x08	; 8
 44e:	89 27       	eor	r24, r25
 450:	88 b9       	out	0x08, r24	; 8
 452:	8f e9       	ldi	r24, 0x9F	; 159
 454:	9c e8       	ldi	r25, 0x8C	; 140
 456:	01 97       	sbiw	r24, 0x01	; 1
 458:	f1 f7       	brne	.-4      	; 0x456 <open+0x1a>
 45a:	00 c0       	rjmp	.+0      	; 0x45c <open+0x20>
 45c:	00 00       	nop
    _delay_us(18000);
    
    return 1;
}
 45e:	81 e0       	ldi	r24, 0x01	; 1
 460:	90 e0       	ldi	r25, 0x00	; 0
 462:	08 95       	ret

00000464 <close>:

int close(void){
    //ToDo: need to update this
    //close sequence
    PORTC = (BV(5));
 464:	90 e2       	ldi	r25, 0x20	; 32
 466:	98 b9       	out	0x08, r25	; 8
 468:	ef ec       	ldi	r30, 0xCF	; 207
 46a:	f7 e0       	ldi	r31, 0x07	; 7
 46c:	31 97       	sbiw	r30, 0x01	; 1
 46e:	f1 f7       	brne	.-4      	; 0x46c <close+0x8>
 470:	00 c0       	rjmp	.+0      	; 0x472 <close+0xe>
 472:	00 00       	nop
    _delay_us(1000);
    PORTC   ^=BV(5);
 474:	88 b1       	in	r24, 0x08	; 8
 476:	89 27       	eor	r24, r25
 478:	88 b9       	out	0x08, r24	; 8
 47a:	8f e6       	ldi	r24, 0x6F	; 111
 47c:	94 e9       	ldi	r25, 0x94	; 148
 47e:	01 97       	sbiw	r24, 0x01	; 1
 480:	f1 f7       	brne	.-4      	; 0x47e <close+0x1a>
 482:	00 c0       	rjmp	.+0      	; 0x484 <close+0x20>
 484:	00 00       	nop
    _delay_us(19000);
    return 1;
}
 486:	81 e0       	ldi	r24, 0x01	; 1
 488:	90 e0       	ldi	r25, 0x00	; 0
 48a:	08 95       	ret

0000048c <initButton>:


void initButton(void){
    // uint8_t button = 3;
    //uint8_t ledG = 2;
    DDRC ^= BV(button); //set as input
 48c:	97 b1       	in	r25, 0x07	; 7
 48e:	21 e0       	ldi	r18, 0x01	; 1
 490:	92 27       	eor	r25, r18
 492:	97 b9       	out	0x07, r25	; 7
    DDRC |= BV(ledG); //set output
 494:	3a 9a       	sbi	0x07, 2	; 7
    
    PORTC ^= BV(button); // set low
 496:	88 b1       	in	r24, 0x08	; 8
 498:	82 27       	eor	r24, r18
 49a:	88 b9       	out	0x08, r24	; 8
 49c:	08 95       	ret

0000049e <buttonRead>:
}

int buttonRead(void){
    if(bit_is_clear(PINC, button)){
 49e:	30 99       	sbic	0x06, 0	; 6
 4a0:	2e c0       	rjmp	.+92     	; 0x4fe <buttonRead+0x60>
        LCDClear();
 4a2:	60 e0       	ldi	r22, 0x00	; 0
 4a4:	81 e0       	ldi	r24, 0x01	; 1
 4a6:	0e 94 79 00 	call	0xf2	; 0xf2 <LCDByte>
	#else
		//round up by default
		__ticks_dc = (uint32_t)(ceil(fabs(__tmp)));
	#endif

	__builtin_avr_delay_cycles(__ticks_dc);
 4aa:	2f ef       	ldi	r18, 0xFF	; 255
 4ac:	89 ef       	ldi	r24, 0xF9	; 249
 4ae:	90 e0       	ldi	r25, 0x00	; 0
 4b0:	21 50       	subi	r18, 0x01	; 1
 4b2:	80 40       	sbci	r24, 0x00	; 0
 4b4:	90 40       	sbci	r25, 0x00	; 0
 4b6:	e1 f7       	brne	.-8      	; 0x4b0 <buttonRead+0x12>
 4b8:	00 c0       	rjmp	.+0      	; 0x4ba <buttonRead+0x1c>
 4ba:	00 00       	nop
        _delay_ms(40);
        LCDWriteString("button press");
 4bc:	8a e1       	ldi	r24, 0x1A	; 26
 4be:	91 e0       	ldi	r25, 0x01	; 1
 4c0:	0e 94 d4 00 	call	0x1a8	; 0x1a8 <LCDWriteString>
        open();
 4c4:	0e 94 1e 02 	call	0x43c	; 0x43c <open>
 4c8:	2f ef       	ldi	r18, 0xFF	; 255
 4ca:	84 e3       	ldi	r24, 0x34	; 52
 4cc:	9c e0       	ldi	r25, 0x0C	; 12
 4ce:	21 50       	subi	r18, 0x01	; 1
 4d0:	80 40       	sbci	r24, 0x00	; 0
 4d2:	90 40       	sbci	r25, 0x00	; 0
 4d4:	e1 f7       	brne	.-8      	; 0x4ce <buttonRead+0x30>
 4d6:	00 c0       	rjmp	.+0      	; 0x4d8 <buttonRead+0x3a>
 4d8:	00 00       	nop
        _delay_ms(500);
        close();
 4da:	0e 94 32 02 	call	0x464	; 0x464 <close>
 4de:	2f ef       	ldi	r18, 0xFF	; 255
 4e0:	89 e6       	ldi	r24, 0x69	; 105
 4e2:	98 e1       	ldi	r25, 0x18	; 24
 4e4:	21 50       	subi	r18, 0x01	; 1
 4e6:	80 40       	sbci	r24, 0x00	; 0
 4e8:	90 40       	sbci	r25, 0x00	; 0
 4ea:	e1 f7       	brne	.-8      	; 0x4e4 <buttonRead+0x46>
 4ec:	00 c0       	rjmp	.+0      	; 0x4ee <buttonRead+0x50>
 4ee:	00 00       	nop
        _delay_ms(1000);
        LCDClear();
 4f0:	60 e0       	ldi	r22, 0x00	; 0
 4f2:	81 e0       	ldi	r24, 0x01	; 1
 4f4:	0e 94 79 00 	call	0xf2	; 0xf2 <LCDByte>
 4f8:	81 e0       	ldi	r24, 0x01	; 1
 4fa:	90 e0       	ldi	r25, 0x00	; 0
 4fc:	08 95       	ret
        return 1;
    }
    return 0;
 4fe:	80 e0       	ldi	r24, 0x00	; 0
 500:	90 e0       	ldi	r25, 0x00	; 0
}
 502:	08 95       	ret

00000504 <loadTags>:

void loadTags(void){
 504:	cf 92       	push	r12
 506:	df 92       	push	r13
 508:	ef 92       	push	r14
 50a:	ff 92       	push	r15
 50c:	0f 93       	push	r16
 50e:	1f 93       	push	r17
 510:	cf 93       	push	r28
 512:	df 93       	push	r29
 514:	cb ef       	ldi	r28, 0xFB	; 251
 516:	d1 e0       	ldi	r29, 0x01	; 1
 518:	86 ef       	ldi	r24, 0xF6	; 246
 51a:	c8 2e       	mov	r12, r24
 51c:	81 e0       	ldi	r24, 0x01	; 1
 51e:	d8 2e       	mov	r13, r24
 520:	95 e0       	ldi	r25, 0x05	; 5
 522:	e9 2e       	mov	r14, r25
 524:	92 e0       	ldi	r25, 0x02	; 2
 526:	f9 2e       	mov	r15, r25
 528:	0a e0       	ldi	r16, 0x0A	; 10
 52a:	12 e0       	ldi	r17, 0x02	; 2
    for(int i=0; i<5; i++){
        ram_tag1[i] = read_eeprom_word(tag1[i]);
 52c:	89 91       	ld	r24, Y+
 52e:	90 e0       	ldi	r25, 0x00	; 0
 530:	0e 94 aa 07 	call	0xf54	; 0xf54 <eeprom_read_word>
 534:	f6 01       	movw	r30, r12
 536:	81 93       	st	Z+, r24
 538:	6f 01       	movw	r12, r30
        ram_tag2[i] = read_eeprom_word(tag2[i]);
 53a:	f7 01       	movw	r30, r14
 53c:	81 91       	ld	r24, Z+
 53e:	7f 01       	movw	r14, r30
 540:	90 e0       	ldi	r25, 0x00	; 0
 542:	0e 94 aa 07 	call	0xf54	; 0xf54 <eeprom_read_word>
 546:	f8 01       	movw	r30, r16
 548:	81 93       	st	Z+, r24
 54a:	8f 01       	movw	r16, r30
    }
    return 0;
}

void loadTags(void){
    for(int i=0; i<5; i++){
 54c:	f2 e0       	ldi	r31, 0x02	; 2
 54e:	c0 30       	cpi	r28, 0x00	; 0
 550:	df 07       	cpc	r29, r31
 552:	61 f7       	brne	.-40     	; 0x52c <loadTags+0x28>
        ram_tag1[i] = read_eeprom_word(tag1[i]);
        ram_tag2[i] = read_eeprom_word(tag2[i]);
    }
}
 554:	df 91       	pop	r29
 556:	cf 91       	pop	r28
 558:	1f 91       	pop	r17
 55a:	0f 91       	pop	r16
 55c:	ff 90       	pop	r15
 55e:	ef 90       	pop	r14
 560:	df 90       	pop	r13
 562:	cf 90       	pop	r12
 564:	08 95       	ret

00000566 <validTag>:

void validTag(){
    //flash green led if valid
    PORTC |= BV(ledG);
 566:	42 9a       	sbi	0x08, 2	; 8
 568:	2f ef       	ldi	r18, 0xFF	; 255
 56a:	83 ec       	ldi	r24, 0xC3	; 195
 56c:	99 e0       	ldi	r25, 0x09	; 9
 56e:	21 50       	subi	r18, 0x01	; 1
 570:	80 40       	sbci	r24, 0x00	; 0
 572:	90 40       	sbci	r25, 0x00	; 0
 574:	e1 f7       	brne	.-8      	; 0x56e <validTag+0x8>
 576:	00 c0       	rjmp	.+0      	; 0x578 <validTag+0x12>
 578:	00 00       	nop
    _delay_ms(400);
    PORTC ^= BV(ledG);
 57a:	88 b1       	in	r24, 0x08	; 8
 57c:	94 e0       	ldi	r25, 0x04	; 4
 57e:	89 27       	eor	r24, r25
 580:	88 b9       	out	0x08, r24	; 8
 582:	2f ef       	ldi	r18, 0xFF	; 255
 584:	83 ec       	ldi	r24, 0xC3	; 195
 586:	99 e0       	ldi	r25, 0x09	; 9
 588:	21 50       	subi	r18, 0x01	; 1
 58a:	80 40       	sbci	r24, 0x00	; 0
 58c:	90 40       	sbci	r25, 0x00	; 0
 58e:	e1 f7       	brne	.-8      	; 0x588 <validTag+0x22>
 590:	00 c0       	rjmp	.+0      	; 0x592 <validTag+0x2c>
 592:	00 00       	nop
 594:	08 95       	ret

00000596 <mfrc522_write>:
		mfrc522_write(TxControlReg,byte|0x03);
	}
}

void mfrc522_write(uint8_t reg, uint8_t data)
{
 596:	cf 93       	push	r28
 598:	c6 2f       	mov	r28, r22
	ENABLE_CHIP();
 59a:	2a 98       	cbi	0x05, 2	; 5
	spi_transmit((reg<<1)&0x7E);
 59c:	88 0f       	add	r24, r24
 59e:	8e 77       	andi	r24, 0x7E	; 126
 5a0:	0e 94 69 04 	call	0x8d2	; 0x8d2 <spi_transmit>
	spi_transmit(data);
 5a4:	8c 2f       	mov	r24, r28
 5a6:	0e 94 69 04 	call	0x8d2	; 0x8d2 <spi_transmit>
	DISABLE_CHIP();
 5aa:	2a 9a       	sbi	0x05, 2	; 5
}
 5ac:	cf 91       	pop	r28
 5ae:	08 95       	ret

000005b0 <mfrc522_read>:

uint8_t mfrc522_read(uint8_t reg)
{
	uint8_t data;	
	ENABLE_CHIP();
 5b0:	2a 98       	cbi	0x05, 2	; 5
	spi_transmit(((reg<<1)&0x7E)|0x80);
 5b2:	88 0f       	add	r24, r24
 5b4:	8e 77       	andi	r24, 0x7E	; 126
 5b6:	80 68       	ori	r24, 0x80	; 128
 5b8:	0e 94 69 04 	call	0x8d2	; 0x8d2 <spi_transmit>
	data = spi_transmit(0x00);
 5bc:	80 e0       	ldi	r24, 0x00	; 0
 5be:	0e 94 69 04 	call	0x8d2	; 0x8d2 <spi_transmit>
	DISABLE_CHIP();
 5c2:	2a 9a       	sbi	0x05, 2	; 5
	return data;
}
 5c4:	08 95       	ret

000005c6 <mfrc522_reset>:

void mfrc522_reset()
{
	mfrc522_write(CommandReg,SoftReset_CMD);
 5c6:	6f e0       	ldi	r22, 0x0F	; 15
 5c8:	81 e0       	ldi	r24, 0x01	; 1
 5ca:	0c 94 cb 02 	jmp	0x596	; 0x596 <mfrc522_write>

000005ce <mfrc522_init>:
#endif

void mfrc522_init()
{
	uint8_t byte;
	mfrc522_reset();
 5ce:	0e 94 e3 02 	call	0x5c6	; 0x5c6 <mfrc522_reset>
	
	mfrc522_write(TModeReg, 0x8D);
 5d2:	6d e8       	ldi	r22, 0x8D	; 141
 5d4:	8a e2       	ldi	r24, 0x2A	; 42
 5d6:	0e 94 cb 02 	call	0x596	; 0x596 <mfrc522_write>
    mfrc522_write(TPrescalerReg, 0x3E);
 5da:	6e e3       	ldi	r22, 0x3E	; 62
 5dc:	8b e2       	ldi	r24, 0x2B	; 43
 5de:	0e 94 cb 02 	call	0x596	; 0x596 <mfrc522_write>
    mfrc522_write(TReloadReg_1, 30);   
 5e2:	6e e1       	ldi	r22, 0x1E	; 30
 5e4:	8c e2       	ldi	r24, 0x2C	; 44
 5e6:	0e 94 cb 02 	call	0x596	; 0x596 <mfrc522_write>
    mfrc522_write(TReloadReg_2, 0);	
 5ea:	60 e0       	ldi	r22, 0x00	; 0
 5ec:	8d e2       	ldi	r24, 0x2D	; 45
 5ee:	0e 94 cb 02 	call	0x596	; 0x596 <mfrc522_write>
	mfrc522_write(TxASKReg, 0x40);	
 5f2:	60 e4       	ldi	r22, 0x40	; 64
 5f4:	85 e1       	ldi	r24, 0x15	; 21
 5f6:	0e 94 cb 02 	call	0x596	; 0x596 <mfrc522_write>
	mfrc522_write(ModeReg, 0x3D);
 5fa:	6d e3       	ldi	r22, 0x3D	; 61
 5fc:	81 e1       	ldi	r24, 0x11	; 17
 5fe:	0e 94 cb 02 	call	0x596	; 0x596 <mfrc522_write>
	
	byte = mfrc522_read(TxControlReg);
 602:	84 e1       	ldi	r24, 0x14	; 20
 604:	0e 94 d8 02 	call	0x5b0	; 0x5b0 <mfrc522_read>
	if(!(byte&0x03))
 608:	98 2f       	mov	r25, r24
 60a:	93 70       	andi	r25, 0x03	; 3
 60c:	29 f4       	brne	.+10     	; 0x618 <mfrc522_init+0x4a>
	{
		mfrc522_write(TxControlReg,byte|0x03);
 60e:	68 2f       	mov	r22, r24
 610:	63 60       	ori	r22, 0x03	; 3
 612:	84 e1       	ldi	r24, 0x14	; 20
 614:	0c 94 cb 02 	jmp	0x596	; 0x596 <mfrc522_write>
 618:	08 95       	ret

0000061a <mfrc522_to_card>:
   
	return status;
}

uint8_t mfrc522_to_card(uint8_t cmd, uint8_t *send_data, uint8_t send_data_len, uint8_t *back_data, uint32_t *back_data_len)
{
 61a:	3f 92       	push	r3
 61c:	4f 92       	push	r4
 61e:	5f 92       	push	r5
 620:	6f 92       	push	r6
 622:	7f 92       	push	r7
 624:	8f 92       	push	r8
 626:	9f 92       	push	r9
 628:	af 92       	push	r10
 62a:	bf 92       	push	r11
 62c:	cf 92       	push	r12
 62e:	df 92       	push	r13
 630:	ef 92       	push	r14
 632:	ff 92       	push	r15
 634:	0f 93       	push	r16
 636:	1f 93       	push	r17
 638:	cf 93       	push	r28
 63a:	df 93       	push	r29
 63c:	d8 2e       	mov	r13, r24
 63e:	5b 01       	movw	r10, r22
 640:	84 2e       	mov	r8, r20
 642:	79 01       	movw	r14, r18
 644:	e8 01       	movw	r28, r16
    uint8_t lastBits;
    uint8_t n;
    uint8_t	tmp;
    uint32_t i;

    switch (cmd)
 646:	8c e0       	ldi	r24, 0x0C	; 12
 648:	d8 16       	cp	r13, r24
 64a:	09 f4       	brne	.+2      	; 0x64e <mfrc522_to_card+0x34>
 64c:	6b c0       	rjmp	.+214    	; 0x724 <mfrc522_to_card+0x10a>
 64e:	ee e0       	ldi	r30, 0x0E	; 14
 650:	de 16       	cp	r13, r30
 652:	09 f4       	brne	.+2      	; 0x656 <mfrc522_to_card+0x3c>
 654:	6c c0       	rjmp	.+216    	; 0x72e <mfrc522_to_card+0x114>

uint8_t mfrc522_to_card(uint8_t cmd, uint8_t *send_data, uint8_t send_data_len, uint8_t *back_data, uint32_t *back_data_len)
{
	uint8_t status = ERROR;
    uint8_t irqEn = 0x00;
    uint8_t waitIRq = 0x00;
 656:	31 2c       	mov	r3, r1
}

uint8_t mfrc522_to_card(uint8_t cmd, uint8_t *send_data, uint8_t send_data_len, uint8_t *back_data, uint32_t *back_data_len)
{
	uint8_t status = ERROR;
    uint8_t irqEn = 0x00;
 658:	c1 2c       	mov	r12, r1
		default:
			break;
    }
   
    //mfrc522_write(ComIEnReg, irqEn|0x80);	//Interrupt request
    n=mfrc522_read(ComIrqReg);
 65a:	84 e0       	ldi	r24, 0x04	; 4
 65c:	0e 94 d8 02 	call	0x5b0	; 0x5b0 <mfrc522_read>
    mfrc522_write(ComIrqReg,n&(~0x80));//clear all interrupt bits
 660:	68 2f       	mov	r22, r24
 662:	6f 77       	andi	r22, 0x7F	; 127
 664:	84 e0       	ldi	r24, 0x04	; 4
 666:	0e 94 cb 02 	call	0x596	; 0x596 <mfrc522_write>
    n=mfrc522_read(FIFOLevelReg);
 66a:	8a e0       	ldi	r24, 0x0A	; 10
 66c:	0e 94 d8 02 	call	0x5b0	; 0x5b0 <mfrc522_read>
    mfrc522_write(FIFOLevelReg,n|0x80);//flush FIFO data
 670:	68 2f       	mov	r22, r24
 672:	60 68       	ori	r22, 0x80	; 128
 674:	8a e0       	ldi	r24, 0x0A	; 10
 676:	0e 94 cb 02 	call	0x596	; 0x596 <mfrc522_write>
    
	mfrc522_write(CommandReg, Idle_CMD);	//NO action; Cancel the current cmd???
 67a:	60 e0       	ldi	r22, 0x00	; 0
 67c:	81 e0       	ldi	r24, 0x01	; 1
 67e:	0e 94 cb 02 	call	0x596	; 0x596 <mfrc522_write>
 682:	85 01       	movw	r16, r10

	//Writing data to the FIFO
    for (i=0; i<send_data_len; i++)
 684:	41 2c       	mov	r4, r1
 686:	51 2c       	mov	r5, r1
 688:	32 01       	movw	r6, r4
 68a:	91 2c       	mov	r9, r1
 68c:	a1 2c       	mov	r10, r1
 68e:	b1 2c       	mov	r11, r1
 690:	48 14       	cp	r4, r8
 692:	59 04       	cpc	r5, r9
 694:	6a 04       	cpc	r6, r10
 696:	7b 04       	cpc	r7, r11
 698:	08 f4       	brcc	.+2      	; 0x69c <mfrc522_to_card+0x82>
 69a:	4e c0       	rjmp	.+156    	; 0x738 <mfrc522_to_card+0x11e>
    {   
		mfrc522_write(FIFODataReg, send_data[i]);    
	}

	//Execute the cmd
	mfrc522_write(CommandReg, cmd);
 69c:	6d 2d       	mov	r22, r13
 69e:	81 e0       	ldi	r24, 0x01	; 1
 6a0:	0e 94 cb 02 	call	0x596	; 0x596 <mfrc522_write>
    if (cmd == Transceive_CMD)
 6a4:	8c e0       	ldi	r24, 0x0C	; 12
 6a6:	d8 12       	cpse	r13, r24
 6a8:	08 c0       	rjmp	.+16     	; 0x6ba <mfrc522_to_card+0xa0>
    {    
		n=mfrc522_read(BitFramingReg);
 6aa:	8d e0       	ldi	r24, 0x0D	; 13
 6ac:	0e 94 d8 02 	call	0x5b0	; 0x5b0 <mfrc522_read>
		mfrc522_write(BitFramingReg,n|0x80);  
 6b0:	68 2f       	mov	r22, r24
 6b2:	60 68       	ori	r22, 0x80	; 128
 6b4:	8d e0       	ldi	r24, 0x0D	; 13
 6b6:	0e 94 cb 02 	call	0x596	; 0x596 <mfrc522_write>
    mfrc522_write(FIFOLevelReg,n|0x80);//flush FIFO data
    
	mfrc522_write(CommandReg, Idle_CMD);	//NO action; Cancel the current cmd???

	//Writing data to the FIFO
    for (i=0; i<send_data_len; i++)
 6ba:	40 ed       	ldi	r20, 0xD0	; 208
 6bc:	84 2e       	mov	r8, r20
 6be:	47 e0       	ldi	r20, 0x07	; 7
 6c0:	94 2e       	mov	r9, r20
 6c2:	a1 2c       	mov	r10, r1
 6c4:	b1 2c       	mov	r11, r1
		//CommIrqReg[7..0]
		//Set1 TxIRq RxIRq IdleIRq HiAlerIRq LoAlertIRq ErrIRq TimerIRq
        n = mfrc522_read(ComIrqReg);
        i--;
    }
    while ((i!=0) && !(n&0x01) && !(n&waitIRq));
 6c6:	13 2d       	mov	r17, r3
 6c8:	11 60       	ori	r17, 0x01	; 1
	i = 2000;	//i according to the clock frequency adjustment, the operator M1 card maximum waiting time 25ms???
    do 
    {
		//CommIrqReg[7..0]
		//Set1 TxIRq RxIRq IdleIRq HiAlerIRq LoAlertIRq ErrIRq TimerIRq
        n = mfrc522_read(ComIrqReg);
 6ca:	84 e0       	ldi	r24, 0x04	; 4
 6cc:	0e 94 d8 02 	call	0x5b0	; 0x5b0 <mfrc522_read>
 6d0:	08 2f       	mov	r16, r24
        i--;
 6d2:	e1 e0       	ldi	r30, 0x01	; 1
 6d4:	8e 1a       	sub	r8, r30
 6d6:	91 08       	sbc	r9, r1
 6d8:	a1 08       	sbc	r10, r1
 6da:	b1 08       	sbc	r11, r1
    }
    while ((i!=0) && !(n&0x01) && !(n&waitIRq));
 6dc:	19 f0       	breq	.+6      	; 0x6e4 <mfrc522_to_card+0xca>
 6de:	81 2f       	mov	r24, r17
 6e0:	80 23       	and	r24, r16
 6e2:	99 f3       	breq	.-26     	; 0x6ca <mfrc522_to_card+0xb0>

	tmp=mfrc522_read(BitFramingReg);
 6e4:	8d e0       	ldi	r24, 0x0D	; 13
 6e6:	0e 94 d8 02 	call	0x5b0	; 0x5b0 <mfrc522_read>
	mfrc522_write(BitFramingReg,tmp&(~0x80));
 6ea:	68 2f       	mov	r22, r24
 6ec:	6f 77       	andi	r22, 0x7F	; 127
 6ee:	8d e0       	ldi	r24, 0x0D	; 13
 6f0:	0e 94 cb 02 	call	0x596	; 0x596 <mfrc522_write>
	
    if (i != 0)
 6f4:	89 28       	or	r8, r9
 6f6:	8a 28       	or	r8, r10
 6f8:	8b 28       	or	r8, r11
 6fa:	51 f5       	brne	.+84     	; 0x750 <mfrc522_to_card+0x136>
	return status;
}

uint8_t mfrc522_to_card(uint8_t cmd, uint8_t *send_data, uint8_t send_data_len, uint8_t *back_data, uint32_t *back_data_len)
{
	uint8_t status = ERROR;
 6fc:	03 e0       	ldi	r16, 0x03	; 3
	
    //SetBitMask(ControlReg,0x80);           //timer stops
    //mfrc522_write(cmdReg, PCD_IDLE); 

    return status;
}
 6fe:	80 2f       	mov	r24, r16
 700:	df 91       	pop	r29
 702:	cf 91       	pop	r28
 704:	1f 91       	pop	r17
 706:	0f 91       	pop	r16
 708:	ff 90       	pop	r15
 70a:	ef 90       	pop	r14
 70c:	df 90       	pop	r13
 70e:	cf 90       	pop	r12
 710:	bf 90       	pop	r11
 712:	af 90       	pop	r10
 714:	9f 90       	pop	r9
 716:	8f 90       	pop	r8
 718:	7f 90       	pop	r7
 71a:	6f 90       	pop	r6
 71c:	5f 90       	pop	r5
 71e:	4f 90       	pop	r4
 720:	3f 90       	pop	r3
 722:	08 95       	ret
			break;
		}
		case Transceive_CMD:	//Transmit FIFO data
		{
			irqEn = 0x77;
			waitIRq = 0x30;
 724:	70 e3       	ldi	r23, 0x30	; 48
 726:	37 2e       	mov	r3, r23
			waitIRq = 0x10;
			break;
		}
		case Transceive_CMD:	//Transmit FIFO data
		{
			irqEn = 0x77;
 728:	e7 e7       	ldi	r30, 0x77	; 119
 72a:	ce 2e       	mov	r12, r30
			waitIRq = 0x30;
			break;
 72c:	96 cf       	rjmp	.-212    	; 0x65a <mfrc522_to_card+0x40>
    switch (cmd)
    {
        case MFAuthent_CMD:		//Certification cards close
		{
			irqEn = 0x12;
			waitIRq = 0x10;
 72e:	50 e1       	ldi	r21, 0x10	; 16
 730:	35 2e       	mov	r3, r21

    switch (cmd)
    {
        case MFAuthent_CMD:		//Certification cards close
		{
			irqEn = 0x12;
 732:	62 e1       	ldi	r22, 0x12	; 18
 734:	c6 2e       	mov	r12, r22
 736:	91 cf       	rjmp	.-222    	; 0x65a <mfrc522_to_card+0x40>
	mfrc522_write(CommandReg, Idle_CMD);	//NO action; Cancel the current cmd???

	//Writing data to the FIFO
    for (i=0; i<send_data_len; i++)
    {   
		mfrc522_write(FIFODataReg, send_data[i]);    
 738:	f8 01       	movw	r30, r16
 73a:	61 91       	ld	r22, Z+
 73c:	8f 01       	movw	r16, r30
 73e:	89 e0       	ldi	r24, 0x09	; 9
 740:	0e 94 cb 02 	call	0x596	; 0x596 <mfrc522_write>
    mfrc522_write(FIFOLevelReg,n|0x80);//flush FIFO data
    
	mfrc522_write(CommandReg, Idle_CMD);	//NO action; Cancel the current cmd???

	//Writing data to the FIFO
    for (i=0; i<send_data_len; i++)
 744:	ff ef       	ldi	r31, 0xFF	; 255
 746:	4f 1a       	sub	r4, r31
 748:	5f 0a       	sbc	r5, r31
 74a:	6f 0a       	sbc	r6, r31
 74c:	7f 0a       	sbc	r7, r31
 74e:	a0 cf       	rjmp	.-192    	; 0x690 <mfrc522_to_card+0x76>
	tmp=mfrc522_read(BitFramingReg);
	mfrc522_write(BitFramingReg,tmp&(~0x80));
	
    if (i != 0)
    {    
        if(!(mfrc522_read(ErrorReg) & 0x1B))	//BufferOvfl Collerr CRCErr ProtecolErr
 750:	86 e0       	ldi	r24, 0x06	; 6
 752:	0e 94 d8 02 	call	0x5b0	; 0x5b0 <mfrc522_read>
 756:	8b 71       	andi	r24, 0x1B	; 27
 758:	89 f6       	brne	.-94     	; 0x6fc <mfrc522_to_card+0xe2>
        {
            status = CARD_FOUND;
            if (n & irqEn & 0x01)
 75a:	fc 2d       	mov	r31, r12
 75c:	f1 70       	andi	r31, 0x01	; 1
 75e:	cf 2e       	mov	r12, r31
 760:	c0 22       	and	r12, r16
 762:	e9 f1       	breq	.+122    	; 0x7de <mfrc522_to_card+0x1c4>
            {   
				status = CARD_NOT_FOUND;			//??   
 764:	02 e0       	ldi	r16, 0x02	; 2
			}

            if (cmd == Transceive_CMD)
 766:	8c e0       	ldi	r24, 0x0C	; 12
 768:	d8 12       	cpse	r13, r24
 76a:	c9 cf       	rjmp	.-110    	; 0x6fe <mfrc522_to_card+0xe4>
            {
               	n = mfrc522_read(FIFOLevelReg);
 76c:	8a e0       	ldi	r24, 0x0A	; 10
 76e:	0e 94 d8 02 	call	0x5b0	; 0x5b0 <mfrc522_read>
 772:	18 2f       	mov	r17, r24
              	lastBits = mfrc522_read(ControlReg) & 0x07;
 774:	8c e0       	ldi	r24, 0x0C	; 12
 776:	0e 94 d8 02 	call	0x5b0	; 0x5b0 <mfrc522_read>
 77a:	28 2f       	mov	r18, r24
 77c:	27 70       	andi	r18, 0x07	; 7
 77e:	81 2f       	mov	r24, r17
 780:	90 e0       	ldi	r25, 0x00	; 0
                if (lastBits)
 782:	79 f1       	breq	.+94     	; 0x7e2 <mfrc522_to_card+0x1c8>
                {   
					*back_data_len = (n-1)*8 + lastBits;   
 784:	01 97       	sbiw	r24, 0x01	; 1
 786:	33 e0       	ldi	r19, 0x03	; 3
 788:	88 0f       	add	r24, r24
 78a:	99 1f       	adc	r25, r25
 78c:	3a 95       	dec	r19
 78e:	e1 f7       	brne	.-8      	; 0x788 <mfrc522_to_card+0x16e>
 790:	82 0f       	add	r24, r18
 792:	91 1d       	adc	r25, r1
				}
                else
                {   
					*back_data_len = n*8;   
 794:	09 2e       	mov	r0, r25
 796:	00 0c       	add	r0, r0
 798:	aa 0b       	sbc	r26, r26
 79a:	bb 0b       	sbc	r27, r27
 79c:	88 83       	st	Y, r24
 79e:	99 83       	std	Y+1, r25	; 0x01
 7a0:	aa 83       	std	Y+2, r26	; 0x02
 7a2:	bb 83       	std	Y+3, r27	; 0x03
				}

                if (n == 0)
 7a4:	11 23       	and	r17, r17
 7a6:	19 f1       	breq	.+70     	; 0x7ee <mfrc522_to_card+0x1d4>
 7a8:	11 31       	cpi	r17, 0x11	; 17
 7aa:	08 f0       	brcs	.+2      	; 0x7ae <mfrc522_to_card+0x194>
 7ac:	10 e1       	ldi	r17, 0x10	; 16
 7ae:	e7 01       	movw	r28, r14
                {   
					n = MAX_LEN;   
				}
				
				//Reading the received data in FIFO
                for (i=0; i<n; i++)
 7b0:	81 2c       	mov	r8, r1
 7b2:	91 2c       	mov	r9, r1
 7b4:	54 01       	movw	r10, r8
 7b6:	c1 2e       	mov	r12, r17
 7b8:	d1 2c       	mov	r13, r1
 7ba:	e1 2c       	mov	r14, r1
 7bc:	f1 2c       	mov	r15, r1
 7be:	8c 14       	cp	r8, r12
 7c0:	9d 04       	cpc	r9, r13
 7c2:	ae 04       	cpc	r10, r14
 7c4:	bf 04       	cpc	r11, r15
 7c6:	08 f0       	brcs	.+2      	; 0x7ca <mfrc522_to_card+0x1b0>
 7c8:	9a cf       	rjmp	.-204    	; 0x6fe <mfrc522_to_card+0xe4>
                {   
					back_data[i] = mfrc522_read(FIFODataReg);    
 7ca:	89 e0       	ldi	r24, 0x09	; 9
 7cc:	0e 94 d8 02 	call	0x5b0	; 0x5b0 <mfrc522_read>
 7d0:	89 93       	st	Y+, r24
                {   
					n = MAX_LEN;   
				}
				
				//Reading the received data in FIFO
                for (i=0; i<n; i++)
 7d2:	ef ef       	ldi	r30, 0xFF	; 255
 7d4:	8e 1a       	sub	r8, r30
 7d6:	9e 0a       	sbc	r9, r30
 7d8:	ae 0a       	sbc	r10, r30
 7da:	be 0a       	sbc	r11, r30
 7dc:	f0 cf       	rjmp	.-32     	; 0x7be <mfrc522_to_card+0x1a4>
	
    if (i != 0)
    {    
        if(!(mfrc522_read(ErrorReg) & 0x1B))	//BufferOvfl Collerr CRCErr ProtecolErr
        {
            status = CARD_FOUND;
 7de:	01 e0       	ldi	r16, 0x01	; 1
 7e0:	c2 cf       	rjmp	.-124    	; 0x766 <mfrc522_to_card+0x14c>
                {   
					*back_data_len = (n-1)*8 + lastBits;   
				}
                else
                {   
					*back_data_len = n*8;   
 7e2:	23 e0       	ldi	r18, 0x03	; 3
 7e4:	88 0f       	add	r24, r24
 7e6:	99 1f       	adc	r25, r25
 7e8:	2a 95       	dec	r18
 7ea:	e1 f7       	brne	.-8      	; 0x7e4 <mfrc522_to_card+0x1ca>
 7ec:	d3 cf       	rjmp	.-90     	; 0x794 <mfrc522_to_card+0x17a>
				}

                if (n == 0)
                {   
					n = 1;    
 7ee:	11 e0       	ldi	r17, 0x01	; 1
 7f0:	de cf       	rjmp	.-68     	; 0x7ae <mfrc522_to_card+0x194>

000007f2 <mfrc522_request>:
{
	mfrc522_write(CommandReg,SoftReset_CMD);
}

uint8_t	mfrc522_request(uint8_t req_mode, uint8_t * tag_type)
{
 7f2:	ef 92       	push	r14
 7f4:	ff 92       	push	r15
 7f6:	0f 93       	push	r16
 7f8:	1f 93       	push	r17
 7fa:	cf 93       	push	r28
 7fc:	df 93       	push	r29
 7fe:	00 d0       	rcall	.+0      	; 0x800 <mfrc522_request+0xe>
 800:	00 d0       	rcall	.+0      	; 0x802 <mfrc522_request+0x10>
 802:	cd b7       	in	r28, 0x3d	; 61
 804:	de b7       	in	r29, 0x3e	; 62
 806:	18 2f       	mov	r17, r24
 808:	7b 01       	movw	r14, r22
	uint8_t  status;  
	uint32_t backBits;//The received data bits

	mfrc522_write(BitFramingReg, 0x07);//TxLastBists = BitFramingReg[2..0]	???
 80a:	67 e0       	ldi	r22, 0x07	; 7
 80c:	8d e0       	ldi	r24, 0x0D	; 13
 80e:	0e 94 cb 02 	call	0x596	; 0x596 <mfrc522_write>
	
	tag_type[0] = req_mode;
 812:	f7 01       	movw	r30, r14
 814:	10 83       	st	Z, r17
	status = mfrc522_to_card(Transceive_CMD, tag_type, 1, tag_type, &backBits);
 816:	8e 01       	movw	r16, r28
 818:	0f 5f       	subi	r16, 0xFF	; 255
 81a:	1f 4f       	sbci	r17, 0xFF	; 255
 81c:	97 01       	movw	r18, r14
 81e:	41 e0       	ldi	r20, 0x01	; 1
 820:	b7 01       	movw	r22, r14
 822:	8c e0       	ldi	r24, 0x0C	; 12
 824:	0e 94 0d 03 	call	0x61a	; 0x61a <mfrc522_to_card>

	if ((status != CARD_FOUND) || (backBits != 0x10))
 828:	81 30       	cpi	r24, 0x01	; 1
 82a:	a1 f4       	brne	.+40     	; 0x854 <mfrc522_request+0x62>
 82c:	49 81       	ldd	r20, Y+1	; 0x01
 82e:	5a 81       	ldd	r21, Y+2	; 0x02
 830:	6b 81       	ldd	r22, Y+3	; 0x03
 832:	7c 81       	ldd	r23, Y+4	; 0x04
 834:	40 31       	cpi	r20, 0x10	; 16
 836:	51 05       	cpc	r21, r1
 838:	61 05       	cpc	r22, r1
 83a:	71 05       	cpc	r23, r1
 83c:	59 f4       	brne	.+22     	; 0x854 <mfrc522_request+0x62>
	{    
		status = ERROR;
	}
   
	return status;
}
 83e:	0f 90       	pop	r0
 840:	0f 90       	pop	r0
 842:	0f 90       	pop	r0
 844:	0f 90       	pop	r0
 846:	df 91       	pop	r29
 848:	cf 91       	pop	r28
 84a:	1f 91       	pop	r17
 84c:	0f 91       	pop	r16
 84e:	ff 90       	pop	r15
 850:	ef 90       	pop	r14
 852:	08 95       	ret
	tag_type[0] = req_mode;
	status = mfrc522_to_card(Transceive_CMD, tag_type, 1, tag_type, &backBits);

	if ((status != CARD_FOUND) || (backBits != 0x10))
	{    
		status = ERROR;
 854:	83 e0       	ldi	r24, 0x03	; 3
	}
   
	return status;
 856:	f3 cf       	rjmp	.-26     	; 0x83e <mfrc522_request+0x4c>

00000858 <mfrc522_get_card_serial>:
    return status;
}


uint8_t mfrc522_get_card_serial(uint8_t * serial_out)
{
 858:	ef 92       	push	r14
 85a:	ff 92       	push	r15
 85c:	0f 93       	push	r16
 85e:	1f 93       	push	r17
 860:	cf 93       	push	r28
 862:	df 93       	push	r29
 864:	00 d0       	rcall	.+0      	; 0x866 <mfrc522_get_card_serial+0xe>
 866:	00 d0       	rcall	.+0      	; 0x868 <mfrc522_get_card_serial+0x10>
 868:	cd b7       	in	r28, 0x3d	; 61
 86a:	de b7       	in	r29, 0x3e	; 62
 86c:	7c 01       	movw	r14, r24
	uint8_t status;
    uint8_t i;
	uint8_t serNumCheck=0;
    uint32_t unLen;
    
	mfrc522_write(BitFramingReg, 0x00);		//TxLastBists = BitFramingReg[2..0]
 86e:	60 e0       	ldi	r22, 0x00	; 0
 870:	8d e0       	ldi	r24, 0x0D	; 13
 872:	0e 94 cb 02 	call	0x596	; 0x596 <mfrc522_write>
 
    serial_out[0] = PICC_ANTICOLL;
 876:	83 e9       	ldi	r24, 0x93	; 147
 878:	f7 01       	movw	r30, r14
 87a:	80 83       	st	Z, r24
    serial_out[1] = 0x20;
 87c:	80 e2       	ldi	r24, 0x20	; 32
 87e:	81 83       	std	Z+1, r24	; 0x01
    status = mfrc522_to_card(Transceive_CMD, serial_out, 2, serial_out, &unLen);
 880:	8e 01       	movw	r16, r28
 882:	0f 5f       	subi	r16, 0xFF	; 255
 884:	1f 4f       	sbci	r17, 0xFF	; 255
 886:	97 01       	movw	r18, r14
 888:	42 e0       	ldi	r20, 0x02	; 2
 88a:	b7 01       	movw	r22, r14
 88c:	8c e0       	ldi	r24, 0x0C	; 12
 88e:	0e 94 0d 03 	call	0x61a	; 0x61a <mfrc522_to_card>

    if (status == CARD_FOUND)
 892:	81 30       	cpi	r24, 0x01	; 1
 894:	71 f4       	brne	.+28     	; 0x8b2 <mfrc522_get_card_serial+0x5a>
 896:	f7 01       	movw	r30, r14
 898:	97 01       	movw	r18, r14
 89a:	2c 5f       	subi	r18, 0xFC	; 252
 89c:	3f 4f       	sbci	r19, 0xFF	; 255
 89e:	90 e0       	ldi	r25, 0x00	; 0
	{
		//Check card serial number
		for (i=0; i<4; i++)
		{   
		 	serNumCheck ^= serial_out[i];
 8a0:	41 91       	ld	r20, Z+
 8a2:	94 27       	eor	r25, r20
    status = mfrc522_to_card(Transceive_CMD, serial_out, 2, serial_out, &unLen);

    if (status == CARD_FOUND)
	{
		//Check card serial number
		for (i=0; i<4; i++)
 8a4:	e2 17       	cp	r30, r18
 8a6:	f3 07       	cpc	r31, r19
 8a8:	d9 f7       	brne	.-10     	; 0x8a0 <mfrc522_get_card_serial+0x48>
		{   
		 	serNumCheck ^= serial_out[i];
		}
		if (serNumCheck != serial_out[i])
 8aa:	f7 01       	movw	r30, r14
 8ac:	24 81       	ldd	r18, Z+4	; 0x04
 8ae:	92 13       	cpse	r25, r18
		{   
			status = ERROR;    
 8b0:	83 e0       	ldi	r24, 0x03	; 3
		}
    }
    return status;
}
 8b2:	0f 90       	pop	r0
 8b4:	0f 90       	pop	r0
 8b6:	0f 90       	pop	r0
 8b8:	0f 90       	pop	r0
 8ba:	df 91       	pop	r29
 8bc:	cf 91       	pop	r28
 8be:	1f 91       	pop	r17
 8c0:	0f 91       	pop	r16
 8c2:	ff 90       	pop	r15
 8c4:	ef 90       	pop	r14
 8c6:	08 95       	ret

000008c8 <spi_init>:
#include <spi.h>

#if SPI_CONFIG_AS_MASTER
void spi_init()
{
	SPI_DDR = (1<<SPI_MOSI)|(1<<SPI_SCK)|(1<<SPI_SS);
 8c8:	8c e2       	ldi	r24, 0x2C	; 44
 8ca:	84 b9       	out	0x04, r24	; 4
	SPCR = (1<<SPE)|(1<<MSTR)|(1<<SPR0);//prescaler 16
 8cc:	81 e5       	ldi	r24, 0x51	; 81
 8ce:	8c bd       	out	0x2c, r24	; 44
 8d0:	08 95       	ret

000008d2 <spi_transmit>:
 8d2:	8e bd       	out	0x2e, r24	; 46
 8d4:	0d b4       	in	r0, 0x2d	; 45
 8d6:	07 fe       	sbrs	r0, 7
 8d8:	fd cf       	rjmp	.-6      	; 0x8d4 <spi_transmit+0x2>
 8da:	8e b5       	in	r24, 0x2e	; 46
 8dc:	08 95       	ret

000008de <main>:
}



int main(void)
{
 8de:	cf 93       	push	r28
 8e0:	df 93       	push	r29
 8e2:	cd b7       	in	r28, 0x3d	; 61
 8e4:	de b7       	in	r29, 0x3e	; 62
 8e6:	68 97       	sbiw	r28, 0x18	; 24
 8e8:	0f b6       	in	r0, 0x3f	; 63
 8ea:	f8 94       	cli
 8ec:	de bf       	out	0x3e, r29	; 62
 8ee:	0f be       	out	0x3f, r0	; 63
 8f0:	cd bf       	out	0x3d, r28	; 61

    

    initLED();
 8f2:	0e 94 8a 01 	call	0x314	; 0x314 <initLED>
    
    loadTags(); //load any tags stored in eeprom.
 8f6:	0e 94 82 02 	call	0x504	; 0x504 <loadTags>
    initServo(); //make servo an output at pin 5
 8fa:	0e 94 77 01 	call	0x2ee	; 0x2ee <initServo>
 8fe:	2f e7       	ldi	r18, 0x7F	; 127
 900:	88 e3       	ldi	r24, 0x38	; 56
 902:	91 e0       	ldi	r25, 0x01	; 1
 904:	21 50       	subi	r18, 0x01	; 1
 906:	80 40       	sbci	r24, 0x00	; 0
 908:	90 40       	sbci	r25, 0x00	; 0
 90a:	e1 f7       	brne	.-8      	; 0x904 <__stack+0x5>
 90c:	00 c0       	rjmp	.+0      	; 0x90e <__stack+0xf>
 90e:	00 00       	nop
    
    uint8_t byte;
    uint8_t str[MAX_LEN];
    _delay_ms(50);
    LCDInit(LS_BLINK);
 910:	81 e0       	ldi	r24, 0x01	; 1
 912:	0e 94 a3 00 	call	0x146	; 0x146 <LCDInit>
    LCDWriteStringXY(2,0,"ECEN1310 RFID Tag Reader");
 916:	60 e0       	ldi	r22, 0x00	; 0
 918:	82 e0       	ldi	r24, 0x02	; 2
 91a:	0e 94 47 01 	call	0x28e	; 0x28e <LCDGotoXY>
 91e:	87 e2       	ldi	r24, 0x27	; 39
 920:	91 e0       	ldi	r25, 0x01	; 1
 922:	0e 94 d4 00 	call	0x1a8	; 0x1a8 <LCDWriteString>
    
    spi_init(); //start communication for rfid
 926:	0e 94 64 04 	call	0x8c8	; 0x8c8 <spi_init>
 92a:	af ef       	ldi	r26, 0xFF	; 255
 92c:	b9 e6       	ldi	r27, 0x69	; 105
 92e:	e8 e1       	ldi	r30, 0x18	; 24
 930:	a1 50       	subi	r26, 0x01	; 1
 932:	b0 40       	sbci	r27, 0x00	; 0
 934:	e0 40       	sbci	r30, 0x00	; 0
 936:	e1 f7       	brne	.-8      	; 0x930 <__stack+0x31>
 938:	00 c0       	rjmp	.+0      	; 0x93a <__stack+0x3b>
 93a:	00 00       	nop
    _delay_ms(1000);
    LCDClear();
 93c:	60 e0       	ldi	r22, 0x00	; 0
 93e:	81 e0       	ldi	r24, 0x01	; 1
 940:	0e 94 79 00 	call	0xf2	; 0xf2 <LCDByte>
    
    open();  //for testing
 944:	0e 94 1e 02 	call	0x43c	; 0x43c <open>
    close(); //was for testing
 948:	0e 94 32 02 	call	0x464	; 0x464 <close>
    
    //init reader
    mfrc522_init();
 94c:	0e 94 e7 02 	call	0x5ce	; 0x5ce <mfrc522_init>
 950:	ff ef       	ldi	r31, 0xFF	; 255
 952:	2e e9       	ldi	r18, 0x9E	; 158
 954:	84 e2       	ldi	r24, 0x24	; 36
 956:	f1 50       	subi	r31, 0x01	; 1
 958:	20 40       	sbci	r18, 0x00	; 0
 95a:	80 40       	sbci	r24, 0x00	; 0
 95c:	e1 f7       	brne	.-8      	; 0x956 <__stack+0x57>
 95e:	00 c0       	rjmp	.+0      	; 0x960 <__stack+0x61>
 960:	00 00       	nop
    
    _delay_ms(1500);
    LCDClear();
 962:	60 e0       	ldi	r22, 0x00	; 0
 964:	81 e0       	ldi	r24, 0x01	; 1
 966:	0e 94 79 00 	call	0xf2	; 0xf2 <LCDByte>
    
    int addNext = 0;
    int deleteNext =0;
    
    
    PORTC |=BV(ledG);
 96a:	42 9a       	sbi	0x08, 2	; 8
 96c:	9f e7       	ldi	r25, 0x7F	; 127
 96e:	a2 e3       	ldi	r26, 0x32	; 50
 970:	b2 e0       	ldi	r27, 0x02	; 2
 972:	91 50       	subi	r25, 0x01	; 1
 974:	a0 40       	sbci	r26, 0x00	; 0
 976:	b0 40       	sbci	r27, 0x00	; 0
 978:	e1 f7       	brne	.-8      	; 0x972 <__stack+0x73>
 97a:	00 c0       	rjmp	.+0      	; 0x97c <__stack+0x7d>
 97c:	00 00       	nop
    _delay_ms(90);
    PORTC ^= BV(ledG);
 97e:	88 b1       	in	r24, 0x08	; 8
 980:	94 e0       	ldi	r25, 0x04	; 4
 982:	89 27       	eor	r24, r25
 984:	88 b9       	out	0x08, r24	; 8
 986:	ef e5       	ldi	r30, 0x5F	; 95
 988:	fa ee       	ldi	r31, 0xEA	; 234
 98a:	31 97       	sbiw	r30, 0x01	; 1
 98c:	f1 f7       	brne	.-4      	; 0x98a <__stack+0x8b>
 98e:	00 c0       	rjmp	.+0      	; 0x990 <__stack+0x91>
 990:	00 00       	nop
    
    _delay_ms(1500);
    LCDClear();
    
    int addNext = 0;
    int deleteNext =0;
 992:	e1 2c       	mov	r14, r1
 994:	f1 2c       	mov	r15, r1
    mfrc522_init();
    
    _delay_ms(1500);
    LCDClear();
    
    int addNext = 0;
 996:	00 e0       	ldi	r16, 0x00	; 0
 998:	10 e0       	ldi	r17, 0x00	; 0
 99a:	4e 01       	movw	r8, r28
 99c:	f6 e0       	ldi	r31, 0x06	; 6
 99e:	8f 0e       	add	r8, r31
 9a0:	91 1c       	adc	r9, r1
    
    while(1){
        
       // initLED();
        
        loadTags();
 9a2:	0e 94 82 02 	call	0x504	; 0x504 <loadTags>
        byte = mfrc522_request(PICC_REQALL,str);
 9a6:	be 01       	movw	r22, r28
 9a8:	6f 5f       	subi	r22, 0xFF	; 255
 9aa:	7f 4f       	sbci	r23, 0xFF	; 255
 9ac:	82 e5       	ldi	r24, 0x52	; 82
 9ae:	0e 94 f9 03 	call	0x7f2	; 0x7f2 <mfrc522_request>
 9b2:	d8 2e       	mov	r13, r24
        
        LCDHexDumpXY(0,0,byte);
 9b4:	48 2f       	mov	r20, r24
 9b6:	60 e0       	ldi	r22, 0x00	; 0
 9b8:	80 e0       	ldi	r24, 0x00	; 0
 9ba:	0e 94 59 01 	call	0x2b2	; 0x2b2 <LCDHexDumpXY>
        buttonRead();
 9be:	0e 94 4f 02 	call	0x49e	; 0x49e <buttonRead>
        LCDClear();
 9c2:	60 e0       	ldi	r22, 0x00	; 0
 9c4:	81 e0       	ldi	r24, 0x01	; 1
 9c6:	0e 94 79 00 	call	0xf2	; 0xf2 <LCDByte>
        
        while(deleteNext == 1){
 9ca:	e1 e0       	ldi	r30, 0x01	; 1
 9cc:	ee 16       	cp	r14, r30
 9ce:	f1 04       	cpc	r15, r1
 9d0:	09 f4       	brne	.+2      	; 0x9d4 <__stack+0xd5>
 9d2:	0d c1       	rjmp	.+538    	; 0xbee <__stack+0x2ef>
            }
            loadTags();
            byte = mfrc522_request(PICC_REQALL,str);
        }//end of delete next
        
        while(addNext == 1){
 9d4:	01 30       	cpi	r16, 0x01	; 1
 9d6:	11 05       	cpc	r17, r1
 9d8:	09 f4       	brne	.+2      	; 0x9dc <__stack+0xdd>
 9da:	9f c1       	rjmp	.+830    	; 0xd1a <__stack+0x41b>
            }
            loadTags();
            byte = mfrc522_request(PICC_REQALL,str);
        }
        
        if(byte == CARD_FOUND && addNext !=1)
 9dc:	f1 e0       	ldi	r31, 0x01	; 1
 9de:	df 12       	cpse	r13, r31
 9e0:	8e c2       	rjmp	.+1308   	; 0xefe <__stack+0x5ff>
        {
            byte = mfrc522_get_card_serial(str);
 9e2:	ce 01       	movw	r24, r28
 9e4:	01 96       	adiw	r24, 0x01	; 1
 9e6:	0e 94 2c 04 	call	0x858	; 0x858 <mfrc522_get_card_serial>
            if(byte == CARD_FOUND)
 9ea:	81 30       	cpi	r24, 0x01	; 1
 9ec:	09 f0       	breq	.+2      	; 0x9f0 <__stack+0xf1>
 9ee:	65 c2       	rjmp	.+1226   	; 0xeba <__stack+0x5bb>
 9f0:	ce 01       	movw	r24, r28
 9f2:	01 96       	adiw	r24, 0x01	; 1
 9f4:	7c 01       	movw	r14, r24
            {
                for(byte=0;byte<5;byte++){
                    LCDWriteInt(str[byte], -1);
 9f6:	d7 01       	movw	r26, r14
 9f8:	8d 91       	ld	r24, X+
 9fa:	7d 01       	movw	r14, r26
 9fc:	6f ef       	ldi	r22, 0xFF	; 255
 9fe:	7f ef       	ldi	r23, 0xFF	; 255
 a00:	90 e0       	ldi	r25, 0x00	; 0
 a02:	0e 94 fb 00 	call	0x1f6	; 0x1f6 <LCDWriteInt>
        if(byte == CARD_FOUND && addNext !=1)
        {
            byte = mfrc522_get_card_serial(str);
            if(byte == CARD_FOUND)
            {
                for(byte=0;byte<5;byte++){
 a06:	e8 14       	cp	r14, r8
 a08:	f9 04       	cpc	r15, r9
 a0a:	a9 f7       	brne	.-22     	; 0x9f6 <__stack+0xf7>
 a0c:	fe 01       	movw	r30, r28
 a0e:	31 96       	adiw	r30, 0x01	; 1
 a10:	6f 01       	movw	r12, r30
                        _delay_ms(1000);
                        for(int i=0; i<5; i++){
                            write_eeprom_word(tag2[i], str[i]);
                        }
                        tagNumber++;
                        addNext = 0;
 a12:	3f 01       	movw	r6, r30
 a14:	af e5       	ldi	r26, 0x5F	; 95
 a16:	ba ee       	ldi	r27, 0xEA	; 234
 a18:	11 97       	sbiw	r26, 0x01	; 1
 a1a:	f1 f7       	brne	.-4      	; 0xa18 <__stack+0x119>
 a1c:	00 c0       	rjmp	.+0      	; 0xa1e <__stack+0x11f>
 a1e:	00 00       	nop
            { //not a valid card found
                LCDWriteStringXY(0,1,"Error");
            }
            for(int i=0; i<5; i++){
                _delay_ms(30);//test
                LCDWriteInt(str[i], -1);//test
 a20:	f3 01       	movw	r30, r6
 a22:	81 91       	ld	r24, Z+
 a24:	3f 01       	movw	r6, r30
 a26:	6f ef       	ldi	r22, 0xFF	; 255
 a28:	7f ef       	ldi	r23, 0xFF	; 255
 a2a:	90 e0       	ldi	r25, 0x00	; 0
 a2c:	0e 94 fb 00 	call	0x1f6	; 0x1f6 <LCDWriteInt>
            }
            else
            { //not a valid card found
                LCDWriteStringXY(0,1,"Error");
            }
            for(int i=0; i<5; i++){
 a30:	86 14       	cp	r8, r6
 a32:	97 04       	cpc	r9, r7
 a34:	79 f7       	brne	.-34     	; 0xa14 <__stack+0x115>
 a36:	ff ef       	ldi	r31, 0xFF	; 255
 a38:	20 e7       	ldi	r18, 0x70	; 112
 a3a:	82 e0       	ldi	r24, 0x02	; 2
 a3c:	f1 50       	subi	r31, 0x01	; 1
 a3e:	20 40       	sbci	r18, 0x00	; 0
 a40:	80 40       	sbci	r24, 0x00	; 0
 a42:	e1 f7       	brne	.-8      	; 0xa3c <__stack+0x13d>
 a44:	00 c0       	rjmp	.+0      	; 0xa46 <__stack+0x147>
 a46:	00 00       	nop
                _delay_ms(30);//test
                LCDWriteInt(str[i], -1);//test
            }
            _delay_ms(100);//test
            LCDClear();//test
 a48:	60 e0       	ldi	r22, 0x00	; 0
 a4a:	81 e0       	ldi	r24, 0x01	; 1
 a4c:	0e 94 79 00 	call	0xf2	; 0xf2 <LCDByte>
 a50:	a0 e1       	ldi	r26, 0x10	; 16
 a52:	b1 e0       	ldi	r27, 0x01	; 1
 a54:	b8 8f       	std	Y+24, r27	; 0x18
 a56:	af 8b       	std	Y+23, r26	; 0x17
 a58:	2b e0       	ldi	r18, 0x0B	; 11
 a5a:	42 2e       	mov	r4, r18
 a5c:	21 e0       	ldi	r18, 0x01	; 1
 a5e:	52 2e       	mov	r5, r18
 a60:	36 e0       	ldi	r19, 0x06	; 6
 a62:	23 2e       	mov	r2, r19
 a64:	31 e0       	ldi	r19, 0x01	; 1
 a66:	33 2e       	mov	r3, r19
 a68:	ea e0       	ldi	r30, 0x0A	; 10
 a6a:	f2 e0       	ldi	r31, 0x02	; 2
 a6c:	fa 8b       	std	Y+18, r31	; 0x12
 a6e:	e9 8b       	std	Y+17, r30	; 0x11
 a70:	86 ef       	ldi	r24, 0xF6	; 246
 a72:	91 e0       	ldi	r25, 0x01	; 1
 a74:	9e 8b       	std	Y+22, r25	; 0x16
 a76:	8d 8b       	std	Y+21, r24	; 0x15
 a78:	a5 e1       	ldi	r26, 0x15	; 21
 a7a:	b1 e0       	ldi	r27, 0x01	; 1
 a7c:	bc 8b       	std	Y+20, r27	; 0x14
 a7e:	ab 8b       	std	Y+19, r26	; 0x13
 a80:	78 01       	movw	r14, r16
 a82:	58 01       	movw	r10, r16
            
            for(int k=0;k<5 ;k++){ //loop through id arras
                LCDWriteIntXY(0,1,str[k], -1);
 a84:	61 e0       	ldi	r22, 0x01	; 1
 a86:	80 e0       	ldi	r24, 0x00	; 0
 a88:	0e 94 47 01 	call	0x28e	; 0x28e <LCDGotoXY>
 a8c:	f6 01       	movw	r30, r12
 a8e:	80 81       	ld	r24, Z
 a90:	6f ef       	ldi	r22, 0xFF	; 255
 a92:	7f ef       	ldi	r23, 0xFF	; 255
 a94:	90 e0       	ldi	r25, 0x00	; 0
 a96:	0e 94 fb 00 	call	0x1f6	; 0x1f6 <LCDWriteInt>
                if(str[k] == card2[k] || str[k] == card1[k] || str[k] == ram_tag1[k] || str[k] ==ram_tag2[k]) //tag compare
 a9a:	d6 01       	movw	r26, r12
 a9c:	8c 91       	ld	r24, X
 a9e:	ef 89       	ldd	r30, Y+23	; 0x17
 aa0:	f8 8d       	ldd	r31, Y+24	; 0x18
 aa2:	91 91       	ld	r25, Z+
 aa4:	f8 8f       	std	Y+24, r31	; 0x18
 aa6:	ef 8b       	std	Y+23, r30	; 0x17
 aa8:	89 17       	cp	r24, r25
 aaa:	79 f0       	breq	.+30     	; 0xaca <__stack+0x1cb>
 aac:	ab 89       	ldd	r26, Y+19	; 0x13
 aae:	bc 89       	ldd	r27, Y+20	; 0x14
 ab0:	9c 91       	ld	r25, X
 ab2:	89 17       	cp	r24, r25
 ab4:	51 f0       	breq	.+20     	; 0xaca <__stack+0x1cb>
 ab6:	ed 89       	ldd	r30, Y+21	; 0x15
 ab8:	fe 89       	ldd	r31, Y+22	; 0x16
 aba:	90 81       	ld	r25, Z
 abc:	89 17       	cp	r24, r25
 abe:	29 f0       	breq	.+10     	; 0xaca <__stack+0x1cb>
 ac0:	a9 89       	ldd	r26, Y+17	; 0x11
 ac2:	ba 89       	ldd	r27, Y+18	; 0x12
 ac4:	9c 91       	ld	r25, X
 ac6:	89 13       	cpse	r24, r25
 ac8:	01 c2       	rjmp	.+1026   	; 0xecc <__stack+0x5cd>
                {
                    LCDWriteIntXY(0,1,str[k], -1);
 aca:	61 e0       	ldi	r22, 0x01	; 1
 acc:	80 e0       	ldi	r24, 0x00	; 0
 ace:	0e 94 47 01 	call	0x28e	; 0x28e <LCDGotoXY>
 ad2:	f6 01       	movw	r30, r12
 ad4:	80 81       	ld	r24, Z
 ad6:	6f ef       	ldi	r22, 0xFF	; 255
 ad8:	7f ef       	ldi	r23, 0xFF	; 255
 ada:	90 e0       	ldi	r25, 0x00	; 0
 adc:	0e 94 fb 00 	call	0x1f6	; 0x1f6 <LCDWriteInt>
                    LCDWriteString("MATCH");
 ae0:	8c ec       	ldi	r24, 0xCC	; 204
 ae2:	91 e0       	ldi	r25, 0x01	; 1
 ae4:	0e 94 d4 00 	call	0x1a8	; 0x1a8 <LCDWriteString>
 ae8:	ff e7       	ldi	r31, 0x7F	; 127
 aea:	28 e3       	ldi	r18, 0x38	; 56
 aec:	81 e0       	ldi	r24, 0x01	; 1
 aee:	f1 50       	subi	r31, 0x01	; 1
 af0:	20 40       	sbci	r18, 0x00	; 0
 af2:	80 40       	sbci	r24, 0x00	; 0
 af4:	e1 f7       	brne	.-8      	; 0xaee <__stack+0x1ef>
 af6:	00 c0       	rjmp	.+0      	; 0xaf8 <__stack+0x1f9>
 af8:	00 00       	nop
                    _delay_ms(50);
                    LCDClear();
 afa:	60 e0       	ldi	r22, 0x00	; 0
 afc:	81 e0       	ldi	r24, 0x01	; 1
 afe:	0e 94 79 00 	call	0xf2	; 0xf2 <LCDByte>
                    validCard = 1;
 b02:	a1 e0       	ldi	r26, 0x01	; 1
 b04:	b0 e0       	ldi	r27, 0x00	; 0
 b06:	b0 93 05 01 	sts	0x0105, r27
 b0a:	a0 93 04 01 	sts	0x0104, r26
 b0e:	bf ef       	ldi	r27, 0xFF	; 255
 b10:	cb 1a       	sub	r12, r27
 b12:	db 0a       	sbc	r13, r27
 b14:	ef ef       	ldi	r30, 0xFF	; 255
 b16:	4e 1a       	sub	r4, r30
 b18:	5e 0a       	sbc	r5, r30
 b1a:	ff ef       	ldi	r31, 0xFF	; 255
 b1c:	2f 1a       	sub	r2, r31
 b1e:	3f 0a       	sbc	r3, r31
 b20:	89 89       	ldd	r24, Y+17	; 0x11
 b22:	9a 89       	ldd	r25, Y+18	; 0x12
 b24:	01 96       	adiw	r24, 0x01	; 1
 b26:	9a 8b       	std	Y+18, r25	; 0x12
 b28:	89 8b       	std	Y+17, r24	; 0x11
 b2a:	ad 89       	ldd	r26, Y+21	; 0x15
 b2c:	be 89       	ldd	r27, Y+22	; 0x16
 b2e:	11 96       	adiw	r26, 0x01	; 1
 b30:	be 8b       	std	Y+22, r27	; 0x16
 b32:	ad 8b       	std	Y+21, r26	; 0x15
 b34:	eb 89       	ldd	r30, Y+19	; 0x13
 b36:	fc 89       	ldd	r31, Y+20	; 0x14
 b38:	31 96       	adiw	r30, 0x01	; 1
 b3a:	fc 8b       	std	Y+20, r31	; 0x14
 b3c:	eb 8b       	std	Y+19, r30	; 0x13
                LCDWriteInt(str[i], -1);//test
            }
            _delay_ms(100);//test
            LCDClear();//test
            
            for(int k=0;k<5 ;k++){ //loop through id arras
 b3e:	6c 14       	cp	r6, r12
 b40:	7d 04       	cpc	r7, r13
 b42:	09 f0       	breq	.+2      	; 0xb46 <__stack+0x247>
 b44:	9f cf       	rjmp	.-194    	; 0xa84 <__stack+0x185>
                    validCard = -1;
                    deleteNext = 0;
                    addNext = 0;
                }
            } //end of for loop checking if what type of tag
            if(validCard == 1){
 b46:	80 91 04 01 	lds	r24, 0x0104
 b4a:	90 91 05 01 	lds	r25, 0x0105
 b4e:	01 97       	sbiw	r24, 0x01	; 1
 b50:	39 f5       	brne	.+78     	; 0xba0 <__stack+0x2a1>
                LCDClear();
 b52:	60 e0       	ldi	r22, 0x00	; 0
 b54:	81 e0       	ldi	r24, 0x01	; 1
 b56:	0e 94 79 00 	call	0xf2	; 0xf2 <LCDByte>
 b5a:	ff ef       	ldi	r31, 0xFF	; 255
 b5c:	24 e3       	ldi	r18, 0x34	; 52
 b5e:	8c e0       	ldi	r24, 0x0C	; 12
 b60:	f1 50       	subi	r31, 0x01	; 1
 b62:	20 40       	sbci	r18, 0x00	; 0
 b64:	80 40       	sbci	r24, 0x00	; 0
 b66:	e1 f7       	brne	.-8      	; 0xb60 <__stack+0x261>
 b68:	00 c0       	rjmp	.+0      	; 0xb6a <__stack+0x26b>
 b6a:	00 00       	nop
                _delay_ms(500);
                LCDWriteString("SUCCESS");
 b6c:	82 ed       	ldi	r24, 0xD2	; 210
 b6e:	91 e0       	ldi	r25, 0x01	; 1
 b70:	0e 94 d4 00 	call	0x1a8	; 0x1a8 <LCDWriteString>
                validTag();
 b74:	0e 94 b3 02 	call	0x566	; 0x566 <validTag>
                open();
 b78:	0e 94 1e 02 	call	0x43c	; 0x43c <open>
                validCard=5;
 b7c:	a5 e0       	ldi	r26, 0x05	; 5
 b7e:	b0 e0       	ldi	r27, 0x00	; 0
 b80:	b0 93 05 01 	sts	0x0105, r27
 b84:	a0 93 04 01 	sts	0x0104, r26
 b88:	bf ef       	ldi	r27, 0xFF	; 255
 b8a:	e9 e6       	ldi	r30, 0x69	; 105
 b8c:	f8 e1       	ldi	r31, 0x18	; 24
 b8e:	b1 50       	subi	r27, 0x01	; 1
 b90:	e0 40       	sbci	r30, 0x00	; 0
 b92:	f0 40       	sbci	r31, 0x00	; 0
 b94:	e1 f7       	brne	.-8      	; 0xb8e <__stack+0x28f>
 b96:	00 c0       	rjmp	.+0      	; 0xb98 <__stack+0x299>
 b98:	00 00       	nop
                deleteNext =0;
                _delay_ms(1000);
                close();
 b9a:	0e 94 32 02 	call	0x464	; 0x464 <close>
                _delay_ms(500);
                LCDWriteString("SUCCESS");
                validTag();
                open();
                validCard=5;
                deleteNext =0;
 b9e:	78 01       	movw	r14, r16
                _delay_ms(1000);
                close();
                
            } //end if test worked
            if(validCard == -1 && addNext !=1){
 ba0:	80 91 04 01 	lds	r24, 0x0104
 ba4:	90 91 05 01 	lds	r25, 0x0105
 ba8:	01 96       	adiw	r24, 0x01	; 1
 baa:	b9 f4       	brne	.+46     	; 0xbda <__stack+0x2db>
 bac:	81 e0       	ldi	r24, 0x01	; 1
 bae:	a8 16       	cp	r10, r24
 bb0:	b1 04       	cpc	r11, r1
 bb2:	99 f0       	breq	.+38     	; 0xbda <__stack+0x2db>
                LCDClear();
 bb4:	60 e0       	ldi	r22, 0x00	; 0
 bb6:	81 e0       	ldi	r24, 0x01	; 1
 bb8:	0e 94 79 00 	call	0xf2	; 0xf2 <LCDByte>
 bbc:	9f ef       	ldi	r25, 0xFF	; 255
 bbe:	a0 e7       	ldi	r26, 0x70	; 112
 bc0:	b2 e0       	ldi	r27, 0x02	; 2
 bc2:	91 50       	subi	r25, 0x01	; 1
 bc4:	a0 40       	sbci	r26, 0x00	; 0
 bc6:	b0 40       	sbci	r27, 0x00	; 0
 bc8:	e1 f7       	brne	.-8      	; 0xbc2 <__stack+0x2c3>
 bca:	00 c0       	rjmp	.+0      	; 0xbcc <__stack+0x2cd>
 bcc:	00 00       	nop
                _delay_ms(100);
                LCDWriteString("not valid");
 bce:	8a ed       	ldi	r24, 0xDA	; 218
 bd0:	91 e0       	ldi	r25, 0x01	; 1
 bd2:	0e 94 d4 00 	call	0x1a8	; 0x1a8 <LCDWriteString>
                close();
 bd6:	0e 94 32 02 	call	0x464	; 0x464 <close>
                LCDClear();
            }
            
        } //end of valid card found
        
        LCDWriteStringXY(0,0,"Present Tag");
 bda:	60 e0       	ldi	r22, 0x00	; 0
 bdc:	80 e0       	ldi	r24, 0x00	; 0
 bde:	0e 94 47 01 	call	0x28e	; 0x28e <LCDGotoXY>
 be2:	84 ee       	ldi	r24, 0xE4	; 228
 be4:	91 e0       	ldi	r25, 0x01	; 1
 be6:	0e 94 d4 00 	call	0x1a8	; 0x1a8 <LCDWriteString>
    
    while(1){
        
       // initLED();
        
        loadTags();
 bea:	85 01       	movw	r16, r10
 bec:	da ce       	rjmp	.-588    	; 0x9a2 <__stack+0xa3>
        LCDHexDumpXY(0,0,byte);
        buttonRead();
        LCDClear();
        
        while(deleteNext == 1){
            LCDClear();
 bee:	60 e0       	ldi	r22, 0x00	; 0
 bf0:	81 e0       	ldi	r24, 0x01	; 1
 bf2:	0e 94 79 00 	call	0xf2	; 0xf2 <LCDByte>
            LCDWriteString("delete tag acivated");
 bf6:	80 e4       	ldi	r24, 0x40	; 64
 bf8:	91 e0       	ldi	r25, 0x01	; 1
 bfa:	0e 94 d4 00 	call	0x1a8	; 0x1a8 <LCDWriteString>
 bfe:	2f ef       	ldi	r18, 0xFF	; 255
 c00:	87 e8       	ldi	r24, 0x87	; 135
 c02:	93 e1       	ldi	r25, 0x13	; 19
 c04:	21 50       	subi	r18, 0x01	; 1
 c06:	80 40       	sbci	r24, 0x00	; 0
 c08:	90 40       	sbci	r25, 0x00	; 0
 c0a:	e1 f7       	brne	.-8      	; 0xc04 <__stack+0x305>
 c0c:	00 c0       	rjmp	.+0      	; 0xc0e <__stack+0x30f>
 c0e:	00 00       	nop
            _delay_ms(800);
            byte = mfrc522_request(PICC_REQALL,str);
 c10:	be 01       	movw	r22, r28
 c12:	6f 5f       	subi	r22, 0xFF	; 255
 c14:	7f 4f       	sbci	r23, 0xFF	; 255
 c16:	82 e5       	ldi	r24, 0x52	; 82
 c18:	0e 94 f9 03 	call	0x7f2	; 0x7f2 <mfrc522_request>
            LCDClear();
 c1c:	60 e0       	ldi	r22, 0x00	; 0
 c1e:	81 e0       	ldi	r24, 0x01	; 1
 c20:	0e 94 79 00 	call	0xf2	; 0xf2 <LCDByte>
            LCDWriteString("Scan again to ");
 c24:	84 e5       	ldi	r24, 0x54	; 84
 c26:	91 e0       	ldi	r25, 0x01	; 1
 c28:	0e 94 d4 00 	call	0x1a8	; 0x1a8 <LCDWriteString>
            LCDWriteStringXY(0, 1, "delete all tags.");
 c2c:	61 e0       	ldi	r22, 0x01	; 1
 c2e:	80 e0       	ldi	r24, 0x00	; 0
 c30:	0e 94 47 01 	call	0x28e	; 0x28e <LCDGotoXY>
 c34:	83 e6       	ldi	r24, 0x63	; 99
 c36:	91 e0       	ldi	r25, 0x01	; 1
 c38:	0e 94 d4 00 	call	0x1a8	; 0x1a8 <LCDWriteString>
            byte = mfrc522_request(PICC_REQALL,str);
 c3c:	be 01       	movw	r22, r28
 c3e:	6f 5f       	subi	r22, 0xFF	; 255
 c40:	7f 4f       	sbci	r23, 0xFF	; 255
 c42:	82 e5       	ldi	r24, 0x52	; 82
 c44:	0e 94 f9 03 	call	0x7f2	; 0x7f2 <mfrc522_request>
            if(byte == CARD_FOUND)
 c48:	81 30       	cpi	r24, 0x01	; 1
 c4a:	09 f0       	breq	.+2      	; 0xc4e <__stack+0x34f>
 c4c:	5c c0       	rjmp	.+184    	; 0xd06 <__stack+0x407>
            {
                byte = mfrc522_get_card_serial(str);
 c4e:	ce 01       	movw	r24, r28
 c50:	01 96       	adiw	r24, 0x01	; 1
 c52:	0e 94 2c 04 	call	0x858	; 0x858 <mfrc522_get_card_serial>
                if(byte == CARD_FOUND)
 c56:	81 30       	cpi	r24, 0x01	; 1
 c58:	09 f0       	breq	.+2      	; 0xc5c <__stack+0x35d>
 c5a:	55 c0       	rjmp	.+170    	; 0xd06 <__stack+0x407>
 c5c:	fe 01       	movw	r30, r28
 c5e:	31 96       	adiw	r30, 0x01	; 1
 c60:	a6 e0       	ldi	r26, 0x06	; 6
 c62:	b1 e0       	ldi	r27, 0x01	; 1
                        if (tagNumber == 0 || str[j] != tag1[j] || str[j] != tag2[j]) {
                            deleteNext = 0;
                        }
                    }
                        for(int i=0; i<=4; i++){
                            if(str[i] == DELETE[i]){
 c64:	91 91       	ld	r25, Z+
 c66:	8d 91       	ld	r24, X+
                    for(int j=0; j<=4; j++){
                        if (tagNumber == 0 || str[j] != tag1[j] || str[j] != tag2[j]) {
                            deleteNext = 0;
                        }
                    }
                        for(int i=0; i<=4; i++){
 c68:	e8 15       	cp	r30, r8
 c6a:	f9 05       	cpc	r31, r9
 c6c:	d9 f7       	brne	.-10     	; 0xc64 <__stack+0x365>
                            }
                            else
                                deleteNext =0;
                        }//end of check if duplicate
                    
                    if(deleteNext ==1){
 c6e:	98 13       	cpse	r25, r24
 c70:	48 c0       	rjmp	.+144    	; 0xd02 <__stack+0x403>
                        LCDClear();
 c72:	60 e0       	ldi	r22, 0x00	; 0
 c74:	81 e0       	ldi	r24, 0x01	; 1
 c76:	0e 94 79 00 	call	0xf2	; 0xf2 <LCDByte>
                        LCDWriteString("Removing Tags");
 c7a:	84 e7       	ldi	r24, 0x74	; 116
 c7c:	91 e0       	ldi	r25, 0x01	; 1
 c7e:	0e 94 d4 00 	call	0x1a8	; 0x1a8 <LCDWriteString>
 c82:	af ef       	ldi	r26, 0xFF	; 255
 c84:	b9 e6       	ldi	r27, 0x69	; 105
 c86:	e8 e1       	ldi	r30, 0x18	; 24
 c88:	a1 50       	subi	r26, 0x01	; 1
 c8a:	b0 40       	sbci	r27, 0x00	; 0
 c8c:	e0 40       	sbci	r30, 0x00	; 0
 c8e:	e1 f7       	brne	.-8      	; 0xc88 <__stack+0x389>
 c90:	00 c0       	rjmp	.+0      	; 0xc92 <__stack+0x393>
 c92:	00 00       	nop
 c94:	4b ef       	ldi	r20, 0xFB	; 251
 c96:	e4 2e       	mov	r14, r20
 c98:	41 e0       	ldi	r20, 0x01	; 1
 c9a:	f4 2e       	mov	r15, r20
 c9c:	55 e0       	ldi	r21, 0x05	; 5
 c9e:	c5 2e       	mov	r12, r21
 ca0:	52 e0       	ldi	r21, 0x02	; 2
 ca2:	d5 2e       	mov	r13, r21
                        _delay_ms(1000);
                        for(int i=0; i<5; i++){
                            write_eeprom_word(tag1[i], 0);
 ca4:	d7 01       	movw	r26, r14
 ca6:	8d 91       	ld	r24, X+
 ca8:	7d 01       	movw	r14, r26
 caa:	60 e0       	ldi	r22, 0x00	; 0
 cac:	70 e0       	ldi	r23, 0x00	; 0
 cae:	90 e0       	ldi	r25, 0x00	; 0
 cb0:	0e 94 b0 07 	call	0xf60	; 0xf60 <eeprom_write_word>
                            write_eeprom_word(tag2[i], 0);
 cb4:	f6 01       	movw	r30, r12
 cb6:	81 91       	ld	r24, Z+
 cb8:	6f 01       	movw	r12, r30
 cba:	60 e0       	ldi	r22, 0x00	; 0
 cbc:	70 e0       	ldi	r23, 0x00	; 0
 cbe:	90 e0       	ldi	r25, 0x00	; 0
 cc0:	0e 94 b0 07 	call	0xf60	; 0xf60 <eeprom_write_word>
                    
                    if(deleteNext ==1){
                        LCDClear();
                        LCDWriteString("Removing Tags");
                        _delay_ms(1000);
                        for(int i=0; i<5; i++){
 cc4:	f0 e0       	ldi	r31, 0x00	; 0
 cc6:	ef 16       	cp	r14, r31
 cc8:	f2 e0       	ldi	r31, 0x02	; 2
 cca:	ff 06       	cpc	r15, r31
 ccc:	59 f7       	brne	.-42     	; 0xca4 <__stack+0x3a5>
                            write_eeprom_word(tag1[i], 0);
                            write_eeprom_word(tag2[i], 0);
                        }
                        tagNumber =1;
 cce:	81 e0       	ldi	r24, 0x01	; 1
 cd0:	90 e0       	ldi	r25, 0x00	; 0
 cd2:	90 93 03 01 	sts	0x0103, r25
 cd6:	80 93 02 01 	sts	0x0102, r24
                        deleteNext =0;
                        LCDClear();
 cda:	60 e0       	ldi	r22, 0x00	; 0
 cdc:	0e 94 79 00 	call	0xf2	; 0xf2 <LCDByte>
                        LCDWriteString("Tags Erased");
 ce0:	82 e8       	ldi	r24, 0x82	; 130
 ce2:	91 e0       	ldi	r25, 0x01	; 1
 ce4:	0e 94 d4 00 	call	0x1a8	; 0x1a8 <LCDWriteString>
 ce8:	9f ef       	ldi	r25, 0xFF	; 255
 cea:	a2 e5       	ldi	r26, 0x52	; 82
 cec:	b7 e0       	ldi	r27, 0x07	; 7
 cee:	91 50       	subi	r25, 0x01	; 1
 cf0:	a0 40       	sbci	r26, 0x00	; 0
 cf2:	b0 40       	sbci	r27, 0x00	; 0
 cf4:	e1 f7       	brne	.-8      	; 0xcee <__stack+0x3ef>
 cf6:	00 c0       	rjmp	.+0      	; 0xcf8 <__stack+0x3f9>
 cf8:	00 00       	nop
                        _delay_ms(300);
                        tagNumber =0;
 cfa:	10 92 03 01 	sts	0x0103, r1
 cfe:	10 92 02 01 	sts	0x0102, r1

                    }
                    deleteNext =0;
 d02:	e1 2c       	mov	r14, r1
 d04:	f1 2c       	mov	r15, r1
                   // addNext =0;
                }//end of if card found
            }
            loadTags();
 d06:	0e 94 82 02 	call	0x504	; 0x504 <loadTags>
            byte = mfrc522_request(PICC_REQALL,str);
 d0a:	be 01       	movw	r22, r28
 d0c:	6f 5f       	subi	r22, 0xFF	; 255
 d0e:	7f 4f       	sbci	r23, 0xFF	; 255
 d10:	82 e5       	ldi	r24, 0x52	; 82
 d12:	0e 94 f9 03 	call	0x7f2	; 0x7f2 <mfrc522_request>
 d16:	d8 2e       	mov	r13, r24
 d18:	58 ce       	rjmp	.-848    	; 0x9ca <__stack+0xcb>
        }//end of delete next
        
        while(addNext == 1){
            byte = mfrc522_request(PICC_REQALL,str);
 d1a:	be 01       	movw	r22, r28
 d1c:	6f 5f       	subi	r22, 0xFF	; 255
 d1e:	7f 4f       	sbci	r23, 0xFF	; 255
 d20:	82 e5       	ldi	r24, 0x52	; 82
 d22:	0e 94 f9 03 	call	0x7f2	; 0x7f2 <mfrc522_request>
            LCDClear();
 d26:	60 e0       	ldi	r22, 0x00	; 0
 d28:	81 e0       	ldi	r24, 0x01	; 1
 d2a:	0e 94 79 00 	call	0xf2	; 0xf2 <LCDByte>
            LCDWriteString("Scan tag to ");
 d2e:	8e e8       	ldi	r24, 0x8E	; 142
 d30:	91 e0       	ldi	r25, 0x01	; 1
 d32:	0e 94 d4 00 	call	0x1a8	; 0x1a8 <LCDWriteString>
            LCDWriteStringXY(0, 1, "be added.");
 d36:	61 e0       	ldi	r22, 0x01	; 1
 d38:	80 e0       	ldi	r24, 0x00	; 0
 d3a:	0e 94 47 01 	call	0x28e	; 0x28e <LCDGotoXY>
 d3e:	8b e9       	ldi	r24, 0x9B	; 155
 d40:	91 e0       	ldi	r25, 0x01	; 1
 d42:	0e 94 d4 00 	call	0x1a8	; 0x1a8 <LCDWriteString>
            byte = mfrc522_request(PICC_REQALL,str);
 d46:	be 01       	movw	r22, r28
 d48:	6f 5f       	subi	r22, 0xFF	; 255
 d4a:	7f 4f       	sbci	r23, 0xFF	; 255
 d4c:	82 e5       	ldi	r24, 0x52	; 82
 d4e:	0e 94 f9 03 	call	0x7f2	; 0x7f2 <mfrc522_request>
 d52:	d8 2e       	mov	r13, r24
            
            if(addNext ==1 && tagNumber >2)
 d54:	80 91 02 01 	lds	r24, 0x0102
 d58:	90 91 03 01 	lds	r25, 0x0103
 d5c:	03 97       	sbiw	r24, 0x03	; 3
 d5e:	b4 f0       	brlt	.+44     	; 0xd8c <__stack+0x48d>
            {
                addNext =0;
                tagNumber =1;
 d60:	10 93 03 01 	sts	0x0103, r17
 d64:	00 93 02 01 	sts	0x0102, r16
                LCDClear();
 d68:	60 e0       	ldi	r22, 0x00	; 0
 d6a:	81 e0       	ldi	r24, 0x01	; 1
 d6c:	0e 94 79 00 	call	0xf2	; 0xf2 <LCDByte>
                LCDWriteString("Full");
 d70:	85 ea       	ldi	r24, 0xA5	; 165
 d72:	91 e0       	ldi	r25, 0x01	; 1
 d74:	0e 94 d4 00 	call	0x1a8	; 0x1a8 <LCDWriteString>
 d78:	ff ef       	ldi	r31, 0xFF	; 255
 d7a:	29 e6       	ldi	r18, 0x69	; 105
 d7c:	88 e1       	ldi	r24, 0x18	; 24
 d7e:	f1 50       	subi	r31, 0x01	; 1
 d80:	20 40       	sbci	r18, 0x00	; 0
 d82:	80 40       	sbci	r24, 0x00	; 0
 d84:	e1 f7       	brne	.-8      	; 0xd7e <__stack+0x47f>
 d86:	00 c0       	rjmp	.+0      	; 0xd88 <__stack+0x489>
 d88:	00 00       	nop
            LCDWriteStringXY(0, 1, "be added.");
            byte = mfrc522_request(PICC_REQALL,str);
            
            if(addNext ==1 && tagNumber >2)
            {
                addNext =0;
 d8a:	87 01       	movw	r16, r14
                LCDClear();
                LCDWriteString("Full");
                _delay_ms(1000);

            }
            if(byte == CARD_FOUND)
 d8c:	91 e0       	ldi	r25, 0x01	; 1
 d8e:	d9 12       	cpse	r13, r25
 d90:	64 c0       	rjmp	.+200    	; 0xe5a <__stack+0x55b>
            {
                byte = mfrc522_get_card_serial(str);
 d92:	ce 01       	movw	r24, r28
 d94:	01 96       	adiw	r24, 0x01	; 1
 d96:	0e 94 2c 04 	call	0x858	; 0x858 <mfrc522_get_card_serial>
                if(byte == CARD_FOUND)
 d9a:	81 30       	cpi	r24, 0x01	; 1
 d9c:	09 f0       	breq	.+2      	; 0xda0 <__stack+0x4a1>
 d9e:	5d c0       	rjmp	.+186    	; 0xe5a <__stack+0x55b>
 da0:	de 01       	movw	r26, r28
 da2:	11 96       	adiw	r26, 0x01	; 1
 da4:	6d 01       	movw	r12, r26
 da6:	26 ef       	ldi	r18, 0xF6	; 246
 da8:	31 e0       	ldi	r19, 0x01	; 1
 daa:	ea e0       	ldi	r30, 0x0A	; 10
 dac:	f2 e0       	ldi	r31, 0x02	; 2
 dae:	5d 01       	movw	r10, r26
                {
                    for(int i=0; i<=4; i++){
                        if(str[i] == ram_tag1[i] || str[i]== ram_tag2[i]){
 db0:	d5 01       	movw	r26, r10
 db2:	8d 91       	ld	r24, X+
 db4:	5d 01       	movw	r10, r26
 db6:	d9 01       	movw	r26, r18
 db8:	9d 91       	ld	r25, X+
 dba:	9d 01       	movw	r18, r26
 dbc:	89 17       	cp	r24, r25
 dbe:	19 f0       	breq	.+6      	; 0xdc6 <__stack+0x4c7>
 dc0:	90 81       	ld	r25, Z
 dc2:	89 13       	cpse	r24, r25
 dc4:	01 c0       	rjmp	.+2      	; 0xdc8 <__stack+0x4c9>
                            addNext =0;//duplicate
 dc6:	87 01       	movw	r16, r14
 dc8:	31 96       	adiw	r30, 0x01	; 1
            if(byte == CARD_FOUND)
            {
                byte = mfrc522_get_card_serial(str);
                if(byte == CARD_FOUND)
                {
                    for(int i=0; i<=4; i++){
 dca:	a8 14       	cp	r10, r8
 dcc:	b9 04       	cpc	r11, r9
 dce:	81 f7       	brne	.-32     	; 0xdb0 <__stack+0x4b1>
                        if(str[i] == ram_tag1[i] || str[i]== ram_tag2[i]){
                            addNext =0;//duplicate
                            //not likely to happen but it could
                        }
                    }//end of check if duplicate
                    LCDClear();
 dd0:	60 e0       	ldi	r22, 0x00	; 0
 dd2:	81 e0       	ldi	r24, 0x01	; 1
 dd4:	0e 94 79 00 	call	0xf2	; 0xf2 <LCDByte>
 dd8:	bf ef       	ldi	r27, 0xFF	; 255
 dda:	e3 ec       	ldi	r30, 0xC3	; 195
 ddc:	f9 e0       	ldi	r31, 0x09	; 9
 dde:	b1 50       	subi	r27, 0x01	; 1
 de0:	e0 40       	sbci	r30, 0x00	; 0
 de2:	f0 40       	sbci	r31, 0x00	; 0
 de4:	e1 f7       	brne	.-8      	; 0xdde <__stack+0x4df>
 de6:	00 c0       	rjmp	.+0      	; 0xde8 <__stack+0x4e9>
 de8:	00 00       	nop
                    //LCDWriteString("whyyyyyy");
                    _delay_ms(400);
                    
                    if(tagNumber ==1 && addNext ==1){
 dea:	80 91 02 01 	lds	r24, 0x0102
 dee:	90 91 03 01 	lds	r25, 0x0103
 df2:	81 30       	cpi	r24, 0x01	; 1
 df4:	91 05       	cpc	r25, r1
 df6:	d9 f5       	brne	.+118    	; 0xe6e <__stack+0x56f>
 df8:	01 30       	cpi	r16, 0x01	; 1
 dfa:	11 05       	cpc	r17, r1
 dfc:	71 f5       	brne	.+92     	; 0xe5a <__stack+0x55b>
                        LCDClear();
 dfe:	60 e0       	ldi	r22, 0x00	; 0
 e00:	81 e0       	ldi	r24, 0x01	; 1
 e02:	0e 94 79 00 	call	0xf2	; 0xf2 <LCDByte>
                        LCDWriteString("ADDING CARD 1");
 e06:	8a ea       	ldi	r24, 0xAA	; 170
 e08:	91 e0       	ldi	r25, 0x01	; 1
 e0a:	0e 94 d4 00 	call	0x1a8	; 0x1a8 <LCDWriteString>
 e0e:	2f ef       	ldi	r18, 0xFF	; 255
 e10:	89 e6       	ldi	r24, 0x69	; 105
 e12:	98 e1       	ldi	r25, 0x18	; 24
 e14:	21 50       	subi	r18, 0x01	; 1
 e16:	80 40       	sbci	r24, 0x00	; 0
 e18:	90 40       	sbci	r25, 0x00	; 0
 e1a:	e1 f7       	brne	.-8      	; 0xe14 <__stack+0x515>
 e1c:	00 c0       	rjmp	.+0      	; 0xe1e <__stack+0x51f>
 e1e:	00 00       	nop
 e20:	0b ef       	ldi	r16, 0xFB	; 251
 e22:	11 e0       	ldi	r17, 0x01	; 1
                        _delay_ms(1000);
                        for(int i=0; i<5; i++){
                            write_eeprom_word(tag1[i], str[i]);
 e24:	d6 01       	movw	r26, r12
 e26:	6d 91       	ld	r22, X+
 e28:	6d 01       	movw	r12, r26
 e2a:	f8 01       	movw	r30, r16
 e2c:	81 91       	ld	r24, Z+
 e2e:	8f 01       	movw	r16, r30
 e30:	70 e0       	ldi	r23, 0x00	; 0
 e32:	90 e0       	ldi	r25, 0x00	; 0
 e34:	0e 94 b0 07 	call	0xf60	; 0xf60 <eeprom_write_word>
                    
                    if(tagNumber ==1 && addNext ==1){
                        LCDClear();
                        LCDWriteString("ADDING CARD 1");
                        _delay_ms(1000);
                        for(int i=0; i<5; i++){
 e38:	ac 14       	cp	r10, r12
 e3a:	bd 04       	cpc	r11, r13
 e3c:	99 f7       	brne	.-26     	; 0xe24 <__stack+0x525>
                        LCDWriteString("ADDING CARD 2");
                        _delay_ms(1000);
                        for(int i=0; i<5; i++){
                            write_eeprom_word(tag2[i], str[i]);
                        }
                        tagNumber++;
 e3e:	80 91 02 01 	lds	r24, 0x0102
 e42:	90 91 03 01 	lds	r25, 0x0103
 e46:	01 96       	adiw	r24, 0x01	; 1
 e48:	90 93 03 01 	sts	0x0103, r25
 e4c:	80 93 02 01 	sts	0x0102, r24
                        addNext = 0;
                        deleteNext =0;
                        LCDClear();
 e50:	60 e0       	ldi	r22, 0x00	; 0
 e52:	81 e0       	ldi	r24, 0x01	; 1
 e54:	0e 94 79 00 	call	0xf2	; 0xf2 <LCDByte>
                        _delay_ms(1000);
                        for(int i=0; i<5; i++){
                            write_eeprom_word(tag2[i], str[i]);
                        }
                        tagNumber++;
                        addNext = 0;
 e58:	87 01       	movw	r16, r14
                     
                     */
                    
                }//end of if card found
            }
            loadTags();
 e5a:	0e 94 82 02 	call	0x504	; 0x504 <loadTags>
            byte = mfrc522_request(PICC_REQALL,str);
 e5e:	be 01       	movw	r22, r28
 e60:	6f 5f       	subi	r22, 0xFF	; 255
 e62:	7f 4f       	sbci	r23, 0xFF	; 255
 e64:	82 e5       	ldi	r24, 0x52	; 82
 e66:	0e 94 f9 03 	call	0x7f2	; 0x7f2 <mfrc522_request>
 e6a:	d8 2e       	mov	r13, r24
 e6c:	b3 cd       	rjmp	.-1178   	; 0x9d4 <__stack+0xd5>
                        addNext =0;
                        deleteNext =0;
                        LCDClear();
                    }
                    
                    else if(tagNumber ==2 && addNext ==1){
 e6e:	02 97       	sbiw	r24, 0x02	; 2
 e70:	a1 f7       	brne	.-24     	; 0xe5a <__stack+0x55b>
 e72:	01 30       	cpi	r16, 0x01	; 1
 e74:	11 05       	cpc	r17, r1
 e76:	89 f7       	brne	.-30     	; 0xe5a <__stack+0x55b>
                        LCDClear();
 e78:	60 e0       	ldi	r22, 0x00	; 0
 e7a:	81 e0       	ldi	r24, 0x01	; 1
 e7c:	0e 94 79 00 	call	0xf2	; 0xf2 <LCDByte>
                        LCDWriteString("ADDING CARD 2");
 e80:	88 eb       	ldi	r24, 0xB8	; 184
 e82:	91 e0       	ldi	r25, 0x01	; 1
 e84:	0e 94 d4 00 	call	0x1a8	; 0x1a8 <LCDWriteString>
 e88:	ff ef       	ldi	r31, 0xFF	; 255
 e8a:	29 e6       	ldi	r18, 0x69	; 105
 e8c:	88 e1       	ldi	r24, 0x18	; 24
 e8e:	f1 50       	subi	r31, 0x01	; 1
 e90:	20 40       	sbci	r18, 0x00	; 0
 e92:	80 40       	sbci	r24, 0x00	; 0
 e94:	e1 f7       	brne	.-8      	; 0xe8e <__stack+0x58f>
 e96:	00 c0       	rjmp	.+0      	; 0xe98 <__stack+0x599>
 e98:	00 00       	nop
 e9a:	05 e0       	ldi	r16, 0x05	; 5
 e9c:	12 e0       	ldi	r17, 0x02	; 2
                        _delay_ms(1000);
                        for(int i=0; i<5; i++){
                            write_eeprom_word(tag2[i], str[i]);
 e9e:	d6 01       	movw	r26, r12
 ea0:	6d 91       	ld	r22, X+
 ea2:	6d 01       	movw	r12, r26
 ea4:	f8 01       	movw	r30, r16
 ea6:	81 91       	ld	r24, Z+
 ea8:	8f 01       	movw	r16, r30
 eaa:	70 e0       	ldi	r23, 0x00	; 0
 eac:	90 e0       	ldi	r25, 0x00	; 0
 eae:	0e 94 b0 07 	call	0xf60	; 0xf60 <eeprom_write_word>
                    
                    else if(tagNumber ==2 && addNext ==1){
                        LCDClear();
                        LCDWriteString("ADDING CARD 2");
                        _delay_ms(1000);
                        for(int i=0; i<5; i++){
 eb2:	ca 14       	cp	r12, r10
 eb4:	db 04       	cpc	r13, r11
 eb6:	99 f7       	brne	.-26     	; 0xe9e <__stack+0x59f>
 eb8:	c2 cf       	rjmp	.-124    	; 0xe3e <__stack+0x53f>
                    if(card_display_Delay==1){_delay_ms(1000);}
                }
            }
            else
            { //not a valid card found
                LCDWriteStringXY(0,1,"Error");
 eba:	61 e0       	ldi	r22, 0x01	; 1
 ebc:	80 e0       	ldi	r24, 0x00	; 0
 ebe:	0e 94 47 01 	call	0x28e	; 0x28e <LCDGotoXY>
 ec2:	86 ec       	ldi	r24, 0xC6	; 198
 ec4:	91 e0       	ldi	r25, 0x01	; 1
 ec6:	0e 94 d4 00 	call	0x1a8	; 0x1a8 <LCDWriteString>
 eca:	a0 cd       	rjmp	.-1216   	; 0xa0c <__stack+0x10d>
                    LCDWriteString("MATCH");
                    _delay_ms(50);
                    LCDClear();
                    validCard = 1;
                }
                else if(str[k] == ADD[k]){
 ecc:	f2 01       	movw	r30, r4
 ece:	90 81       	ld	r25, Z
 ed0:	89 17       	cp	r24, r25
 ed2:	69 f0       	breq	.+26     	; 0xeee <__stack+0x5ef>
                    //nextTag read add
                    addNext = 1; //add the next tag
                    
                } //end of add
                else if(str[k] == DELETE[k]){
 ed4:	d1 01       	movw	r26, r2
 ed6:	9c 91       	ld	r25, X
 ed8:	89 17       	cp	r24, r25
 eda:	69 f0       	breq	.+26     	; 0xef6 <__stack+0x5f7>
                    deleteNext =1;
                }
                else{
                    validCard = -1;
 edc:	8f ef       	ldi	r24, 0xFF	; 255
 ede:	9f ef       	ldi	r25, 0xFF	; 255
 ee0:	90 93 05 01 	sts	0x0105, r25
 ee4:	80 93 04 01 	sts	0x0104, r24
                    deleteNext = 0;
 ee8:	78 01       	movw	r14, r16
                    addNext = 0;
 eea:	58 01       	movw	r10, r16
 eec:	10 ce       	rjmp	.-992    	; 0xb0e <__stack+0x20f>
                    LCDClear();
                    validCard = 1;
                }
                else if(str[k] == ADD[k]){
                    //nextTag read add
                    addNext = 1; //add the next tag
 eee:	aa 24       	eor	r10, r10
 ef0:	a3 94       	inc	r10
 ef2:	b1 2c       	mov	r11, r1
 ef4:	0c ce       	rjmp	.-1000   	; 0xb0e <__stack+0x20f>
                    
                } //end of add
                else if(str[k] == DELETE[k]){
                    deleteNext =1;
 ef6:	ee 24       	eor	r14, r14
 ef8:	e3 94       	inc	r14
 efa:	f1 2c       	mov	r15, r1
 efc:	08 ce       	rjmp	.-1008   	; 0xb0e <__stack+0x20f>
 efe:	78 01       	movw	r14, r16
 f00:	58 01       	movw	r10, r16
 f02:	6b ce       	rjmp	.-810    	; 0xbda <__stack+0x2db>

00000f04 <__divmodhi4>:
 f04:	97 fb       	bst	r25, 7
 f06:	07 2e       	mov	r0, r23
 f08:	16 f4       	brtc	.+4      	; 0xf0e <__divmodhi4+0xa>
 f0a:	00 94       	com	r0
 f0c:	07 d0       	rcall	.+14     	; 0xf1c <__divmodhi4_neg1>
 f0e:	77 fd       	sbrc	r23, 7
 f10:	09 d0       	rcall	.+18     	; 0xf24 <__divmodhi4_neg2>
 f12:	0e 94 96 07 	call	0xf2c	; 0xf2c <__udivmodhi4>
 f16:	07 fc       	sbrc	r0, 7
 f18:	05 d0       	rcall	.+10     	; 0xf24 <__divmodhi4_neg2>
 f1a:	3e f4       	brtc	.+14     	; 0xf2a <__divmodhi4_exit>

00000f1c <__divmodhi4_neg1>:
 f1c:	90 95       	com	r25
 f1e:	81 95       	neg	r24
 f20:	9f 4f       	sbci	r25, 0xFF	; 255
 f22:	08 95       	ret

00000f24 <__divmodhi4_neg2>:
 f24:	70 95       	com	r23
 f26:	61 95       	neg	r22
 f28:	7f 4f       	sbci	r23, 0xFF	; 255

00000f2a <__divmodhi4_exit>:
 f2a:	08 95       	ret

00000f2c <__udivmodhi4>:
 f2c:	aa 1b       	sub	r26, r26
 f2e:	bb 1b       	sub	r27, r27
 f30:	51 e1       	ldi	r21, 0x11	; 17
 f32:	07 c0       	rjmp	.+14     	; 0xf42 <__udivmodhi4_ep>

00000f34 <__udivmodhi4_loop>:
 f34:	aa 1f       	adc	r26, r26
 f36:	bb 1f       	adc	r27, r27
 f38:	a6 17       	cp	r26, r22
 f3a:	b7 07       	cpc	r27, r23
 f3c:	10 f0       	brcs	.+4      	; 0xf42 <__udivmodhi4_ep>
 f3e:	a6 1b       	sub	r26, r22
 f40:	b7 0b       	sbc	r27, r23

00000f42 <__udivmodhi4_ep>:
 f42:	88 1f       	adc	r24, r24
 f44:	99 1f       	adc	r25, r25
 f46:	5a 95       	dec	r21
 f48:	a9 f7       	brne	.-22     	; 0xf34 <__udivmodhi4_loop>
 f4a:	80 95       	com	r24
 f4c:	90 95       	com	r25
 f4e:	bc 01       	movw	r22, r24
 f50:	cd 01       	movw	r24, r26
 f52:	08 95       	ret

00000f54 <eeprom_read_word>:
 f54:	a8 e1       	ldi	r26, 0x18	; 24
 f56:	b0 e0       	ldi	r27, 0x00	; 0
 f58:	42 e0       	ldi	r20, 0x02	; 2
 f5a:	50 e0       	ldi	r21, 0x00	; 0
 f5c:	0c 94 b7 07 	jmp	0xf6e	; 0xf6e <eeprom_read_blraw>

00000f60 <eeprom_write_word>:
 f60:	0e 94 c5 07 	call	0xf8a	; 0xf8a <eeprom_write_byte>
 f64:	27 2f       	mov	r18, r23
 f66:	0c 94 c6 07 	jmp	0xf8c	; 0xf8c <eeprom_write_r18>

00000f6a <eeprom_read_block>:
 f6a:	dc 01       	movw	r26, r24
 f6c:	cb 01       	movw	r24, r22

00000f6e <eeprom_read_blraw>:
 f6e:	fc 01       	movw	r30, r24
 f70:	f9 99       	sbic	0x1f, 1	; 31
 f72:	fe cf       	rjmp	.-4      	; 0xf70 <eeprom_read_blraw+0x2>
 f74:	06 c0       	rjmp	.+12     	; 0xf82 <eeprom_read_blraw+0x14>
 f76:	f2 bd       	out	0x22, r31	; 34
 f78:	e1 bd       	out	0x21, r30	; 33
 f7a:	f8 9a       	sbi	0x1f, 0	; 31
 f7c:	31 96       	adiw	r30, 0x01	; 1
 f7e:	00 b4       	in	r0, 0x20	; 32
 f80:	0d 92       	st	X+, r0
 f82:	41 50       	subi	r20, 0x01	; 1
 f84:	50 40       	sbci	r21, 0x00	; 0
 f86:	b8 f7       	brcc	.-18     	; 0xf76 <eeprom_read_blraw+0x8>
 f88:	08 95       	ret

00000f8a <eeprom_write_byte>:
 f8a:	26 2f       	mov	r18, r22

00000f8c <eeprom_write_r18>:
 f8c:	f9 99       	sbic	0x1f, 1	; 31
 f8e:	fe cf       	rjmp	.-4      	; 0xf8c <eeprom_write_r18>
 f90:	1f ba       	out	0x1f, r1	; 31
 f92:	92 bd       	out	0x22, r25	; 34
 f94:	81 bd       	out	0x21, r24	; 33
 f96:	20 bd       	out	0x20, r18	; 32
 f98:	0f b6       	in	r0, 0x3f	; 63
 f9a:	f8 94       	cli
 f9c:	fa 9a       	sbi	0x1f, 2	; 31
 f9e:	f9 9a       	sbi	0x1f, 1	; 31
 fa0:	0f be       	out	0x3f, r0	; 63
 fa2:	01 96       	adiw	r24, 0x01	; 1
 fa4:	08 95       	ret

00000fa6 <_exit>:
 fa6:	f8 94       	cli

00000fa8 <__stop_program>:
 fa8:	ff cf       	rjmp	.-2      	; 0xfa8 <__stop_program>
