   1               		.file	"main.c"
   2               	__SP_H__ = 0x3e
   3               	__SP_L__ = 0x3d
   4               	__SREG__ = 0x3f
   5               	__tmp_reg__ = 0
   6               	__zero_reg__ = 1
   8               		.text
   9               	.Ltext0:
 115               	.global	initServo
 117               	initServo:
   1:/Users/kevinKuwata1/Documents/xcode/ECEN1310Final/Mifare_SERVO/Mifare_SERVO/main.c **** /*
   2:/Users/kevinKuwata1/Documents/xcode/ECEN1310Final/Mifare_SERVO/Mifare_SERVO/main.c ****  correctly reading tags now.
   3:/Users/kevinKuwata1/Documents/xcode/ECEN1310Final/Mifare_SERVO/Mifare_SERVO/main.c ****  on 3/17 this was working.
   4:/Users/kevinKuwata1/Documents/xcode/ECEN1310Final/Mifare_SERVO/Mifare_SERVO/main.c ****  I am modifying it now to see if i can get a servo to turn with a card read.
   5:/Users/kevinKuwata1/Documents/xcode/ECEN1310Final/Mifare_SERVO/Mifare_SERVO/main.c ****  * main.c
   6:/Users/kevinKuwata1/Documents/xcode/ECEN1310Final/Mifare_SERVO/Mifare_SERVO/main.c ****  *
   7:/Users/kevinKuwata1/Documents/xcode/ECEN1310Final/Mifare_SERVO/Mifare_SERVO/main.c ****  * Copyright 2013 Shimon <shimon@monistit.com>
   8:/Users/kevinKuwata1/Documents/xcode/ECEN1310Final/Mifare_SERVO/Mifare_SERVO/main.c ****  base code from Shimon to get the spi and rfid working. I added the servo support and implimented s
   9:/Users/kevinKuwata1/Documents/xcode/ECEN1310Final/Mifare_SERVO/Mifare_SERVO/main.c ****  the AVR requires a .1uF capacitor on power and ground. Without it the avr would randomly restart. 
  10:/Users/kevinKuwata1/Documents/xcode/ECEN1310Final/Mifare_SERVO/Mifare_SERVO/main.c ****  
  11:/Users/kevinKuwata1/Documents/xcode/ECEN1310Final/Mifare_SERVO/Mifare_SERVO/main.c ****  
  12:/Users/kevinKuwata1/Documents/xcode/ECEN1310Final/Mifare_SERVO/Mifare_SERVO/main.c ****  button polling works to turn on servo
  13:/Users/kevinKuwata1/Documents/xcode/ECEN1310Final/Mifare_SERVO/Mifare_SERVO/main.c ****  
  14:/Users/kevinKuwata1/Documents/xcode/ECEN1310Final/Mifare_SERVO/Mifare_SERVO/main.c ****  Not sure how I got card1 id. I dont know if it was uart or if it was with creative print lines
  15:/Users/kevinKuwata1/Documents/xcode/ECEN1310Final/Mifare_SERVO/Mifare_SERVO/main.c ****  I used creative print lines
  16:/Users/kevinKuwata1/Documents/xcode/ECEN1310Final/Mifare_SERVO/Mifare_SERVO/main.c ****  
  17:/Users/kevinKuwata1/Documents/xcode/ECEN1310Final/Mifare_SERVO/Mifare_SERVO/main.c ****  I want to find a way to write the read card to an array. I think its stored in str[k] array so tha
  18:/Users/kevinKuwata1/Documents/xcode/ECEN1310Final/Mifare_SERVO/Mifare_SERVO/main.c ****  x*/
  19:/Users/kevinKuwata1/Documents/xcode/ECEN1310Final/Mifare_SERVO/Mifare_SERVO/main.c **** 
  20:/Users/kevinKuwata1/Documents/xcode/ECEN1310Final/Mifare_SERVO/Mifare_SERVO/main.c **** #include <avr/io.h>
  21:/Users/kevinKuwata1/Documents/xcode/ECEN1310Final/Mifare_SERVO/Mifare_SERVO/main.c **** #include <util/delay.h>
  22:/Users/kevinKuwata1/Documents/xcode/ECEN1310Final/Mifare_SERVO/Mifare_SERVO/main.c **** #include <lcd.h>
  23:/Users/kevinKuwata1/Documents/xcode/ECEN1310Final/Mifare_SERVO/Mifare_SERVO/main.c **** #include <utils.h>
  24:/Users/kevinKuwata1/Documents/xcode/ECEN1310Final/Mifare_SERVO/Mifare_SERVO/main.c **** #include <spi.h>
  25:/Users/kevinKuwata1/Documents/xcode/ECEN1310Final/Mifare_SERVO/Mifare_SERVO/main.c **** #include <mfrc522.h>
  26:/Users/kevinKuwata1/Documents/xcode/ECEN1310Final/Mifare_SERVO/Mifare_SERVO/main.c **** #include <string.h>
  27:/Users/kevinKuwata1/Documents/xcode/ECEN1310Final/Mifare_SERVO/Mifare_SERVO/main.c **** #include <avr/eeprom.h> //so we can store cards
  28:/Users/kevinKuwata1/Documents/xcode/ECEN1310Final/Mifare_SERVO/Mifare_SERVO/main.c **** 
  29:/Users/kevinKuwata1/Documents/xcode/ECEN1310Final/Mifare_SERVO/Mifare_SERVO/main.c **** #define BV(x) (1<<x)     // shifts bits by x. and sets the bit to 1 or 0 based on x 0 is zero shift
  30:/Users/kevinKuwata1/Documents/xcode/ECEN1310Final/Mifare_SERVO/Mifare_SERVO/main.c **** #define ToggleBit(port, bit) (port ^= (1 << bit) //  toggles the bit by negating
  31:/Users/kevinKuwata1/Documents/xcode/ECEN1310Final/Mifare_SERVO/Mifare_SERVO/main.c **** 
  32:/Users/kevinKuwata1/Documents/xcode/ECEN1310Final/Mifare_SERVO/Mifare_SERVO/main.c **** #define button 0 //that is the pin on portc that is input for button
  33:/Users/kevinKuwata1/Documents/xcode/ECEN1310Final/Mifare_SERVO/Mifare_SERVO/main.c **** #define ledG 2 //led for indicator for button
  34:/Users/kevinKuwata1/Documents/xcode/ECEN1310Final/Mifare_SERVO/Mifare_SERVO/main.c **** #define ledR 1 //red led
  35:/Users/kevinKuwata1/Documents/xcode/ECEN1310Final/Mifare_SERVO/Mifare_SERVO/main.c **** #define card_display_Delay 0 //adds delay for the card readout 0 for no delay, 1 for a 1000 delay
  36:/Users/kevinKuwata1/Documents/xcode/ECEN1310Final/Mifare_SERVO/Mifare_SERVO/main.c **** 
  37:/Users/kevinKuwata1/Documents/xcode/ECEN1310Final/Mifare_SERVO/Mifare_SERVO/main.c **** //macros for adding stuff to eeprom
  38:/Users/kevinKuwata1/Documents/xcode/ECEN1310Final/Mifare_SERVO/Mifare_SERVO/main.c **** #define read_eeprom_word(address) eeprom_read_word((const uint8_t *) address)
  39:/Users/kevinKuwata1/Documents/xcode/ECEN1310Final/Mifare_SERVO/Mifare_SERVO/main.c **** #define write_eeprom_word(address, value) eeprom_write_word((uint8_t *) address, (uint8_t *) value)
  40:/Users/kevinKuwata1/Documents/xcode/ECEN1310Final/Mifare_SERVO/Mifare_SERVO/main.c **** 
  41:/Users/kevinKuwata1/Documents/xcode/ECEN1310Final/Mifare_SERVO/Mifare_SERVO/main.c **** unsigned int EEMEM newCard;
  42:/Users/kevinKuwata1/Documents/xcode/ECEN1310Final/Mifare_SERVO/Mifare_SERVO/main.c **** 
  43:/Users/kevinKuwata1/Documents/xcode/ECEN1310Final/Mifare_SERVO/Mifare_SERVO/main.c **** //uint8_t SelfTestBuffer[64];
  44:/Users/kevinKuwata1/Documents/xcode/ECEN1310Final/Mifare_SERVO/Mifare_SERVO/main.c **** 
  45:/Users/kevinKuwata1/Documents/xcode/ECEN1310Final/Mifare_SERVO/Mifare_SERVO/main.c **** /* === === ===    SERVO SETUP   === === === */
  46:/Users/kevinKuwata1/Documents/xcode/ECEN1310Final/Mifare_SERVO/Mifare_SERVO/main.c **** /*
  47:/Users/kevinKuwata1/Documents/xcode/ECEN1310Final/Mifare_SERVO/Mifare_SERVO/main.c ****  pin PB1 using 16 bit timer
  48:/Users/kevinKuwata1/Documents/xcode/ECEN1310Final/Mifare_SERVO/Mifare_SERVO/main.c ****  Read servo example that I have in xcode.
  49:/Users/kevinKuwata1/Documents/xcode/ECEN1310Final/Mifare_SERVO/Mifare_SERVO/main.c ****  to move the servo to max:
  50:/Users/kevinKuwata1/Documents/xcode/ECEN1310Final/Mifare_SERVO/Mifare_SERVO/main.c ****  OCR1A = ICR1 - 2000; //18000
  51:/Users/kevinKuwata1/Documents/xcode/ECEN1310Final/Mifare_SERVO/Mifare_SERVO/main.c ****  _delay_ms(500);
  52:/Users/kevinKuwata1/Documents/xcode/ECEN1310Final/Mifare_SERVO/Mifare_SERVO/main.c ****  to move servo to min
  53:/Users/kevinKuwata1/Documents/xcode/ECEN1310Final/Mifare_SERVO/Mifare_SERVO/main.c ****  OCR1A = ICR1 - 1000; //1000 milisecond
  54:/Users/kevinKuwata1/Documents/xcode/ECEN1310Final/Mifare_SERVO/Mifare_SERVO/main.c ****  _delay_ms(500);
  55:/Users/kevinKuwata1/Documents/xcode/ECEN1310Final/Mifare_SERVO/Mifare_SERVO/main.c ****  cannot use timer 1 because its used for spi. so we have to use timer 2 or do all software
  56:/Users/kevinKuwata1/Documents/xcode/ECEN1310Final/Mifare_SERVO/Mifare_SERVO/main.c ****  */
  57:/Users/kevinKuwata1/Documents/xcode/ECEN1310Final/Mifare_SERVO/Mifare_SERVO/main.c **** 
  58:/Users/kevinKuwata1/Documents/xcode/ECEN1310Final/Mifare_SERVO/Mifare_SERVO/main.c **** //void buttonInit(volatile uint8_t *port, int pin){
  59:/Users/kevinKuwata1/Documents/xcode/ECEN1310Final/Mifare_SERVO/Mifare_SERVO/main.c **** //
  60:/Users/kevinKuwata1/Documents/xcode/ECEN1310Final/Mifare_SERVO/Mifare_SERVO/main.c **** //}
  61:/Users/kevinKuwata1/Documents/xcode/ECEN1310Final/Mifare_SERVO/Mifare_SERVO/main.c **** 
  62:/Users/kevinKuwata1/Documents/xcode/ECEN1310Final/Mifare_SERVO/Mifare_SERVO/main.c **** //void buttonRead(){
  63:/Users/kevinKuwata1/Documents/xcode/ECEN1310Final/Mifare_SERVO/Mifare_SERVO/main.c **** //    //button is hardware debounced.
  64:/Users/kevinKuwata1/Documents/xcode/ECEN1310Final/Mifare_SERVO/Mifare_SERVO/main.c **** //
  65:/Users/kevinKuwata1/Documents/xcode/ECEN1310Final/Mifare_SERVO/Mifare_SERVO/main.c **** //}
  66:/Users/kevinKuwata1/Documents/xcode/ECEN1310Final/Mifare_SERVO/Mifare_SERVO/main.c **** 
  67:/Users/kevinKuwata1/Documents/xcode/ECEN1310Final/Mifare_SERVO/Mifare_SERVO/main.c **** //RFID constants
  68:/Users/kevinKuwata1/Documents/xcode/ECEN1310Final/Mifare_SERVO/Mifare_SERVO/main.c **** //holds id cards
  69:/Users/kevinKuwata1/Documents/xcode/ECEN1310Final/Mifare_SERVO/Mifare_SERVO/main.c **** uint8_t card1[5] = {174,68,45,91,156}; //only 5 elements!!!
  70:/Users/kevinKuwata1/Documents/xcode/ECEN1310Final/Mifare_SERVO/Mifare_SERVO/main.c **** uint8_t card2[5] = {64, 238 , 223, 135, 246};
  71:/Users/kevinKuwata1/Documents/xcode/ECEN1310Final/Mifare_SERVO/Mifare_SERVO/main.c **** uint8_t ADD[5] ={ 121, 241, 181 ,59, 6}; //add card used to add other cards.
  72:/Users/kevinKuwata1/Documents/xcode/ECEN1310Final/Mifare_SERVO/Mifare_SERVO/main.c **** uint8_t DELETE[5] = {145, 146  ,5 ,107 ,109}; //delete card used to delete the next card scanned.
  73:/Users/kevinKuwata1/Documents/xcode/ECEN1310Final/Mifare_SERVO/Mifare_SERVO/main.c **** uint8_t tag1[5];
  74:/Users/kevinKuwata1/Documents/xcode/ECEN1310Final/Mifare_SERVO/Mifare_SERVO/main.c **** uint8_t tag2[5];
  75:/Users/kevinKuwata1/Documents/xcode/ECEN1310Final/Mifare_SERVO/Mifare_SERVO/main.c **** uint8_t ram_tag1[5];
  76:/Users/kevinKuwata1/Documents/xcode/ECEN1310Final/Mifare_SERVO/Mifare_SERVO/main.c **** uint8_t ram_tag2[5];
  77:/Users/kevinKuwata1/Documents/xcode/ECEN1310Final/Mifare_SERVO/Mifare_SERVO/main.c **** uint8_t ram_tag3[5];
  78:/Users/kevinKuwata1/Documents/xcode/ECEN1310Final/Mifare_SERVO/Mifare_SERVO/main.c **** uint8_t ram_tag4[5];
  79:/Users/kevinKuwata1/Documents/xcode/ECEN1310Final/Mifare_SERVO/Mifare_SERVO/main.c **** 
  80:/Users/kevinKuwata1/Documents/xcode/ECEN1310Final/Mifare_SERVO/Mifare_SERVO/main.c **** 
  81:/Users/kevinKuwata1/Documents/xcode/ECEN1310Final/Mifare_SERVO/Mifare_SERVO/main.c **** 
  82:/Users/kevinKuwata1/Documents/xcode/ECEN1310Final/Mifare_SERVO/Mifare_SERVO/main.c **** 
  83:/Users/kevinKuwata1/Documents/xcode/ECEN1310Final/Mifare_SERVO/Mifare_SERVO/main.c **** int validCard = -2;
  84:/Users/kevinKuwata1/Documents/xcode/ECEN1310Final/Mifare_SERVO/Mifare_SERVO/main.c **** int tagNumber = 1; // iterrate after each tag added
  85:/Users/kevinKuwata1/Documents/xcode/ECEN1310Final/Mifare_SERVO/Mifare_SERVO/main.c **** int maxNumberTags =5; //maximum number of cards I can add- arbitrary, does not include the master k
  86:/Users/kevinKuwata1/Documents/xcode/ECEN1310Final/Mifare_SERVO/Mifare_SERVO/main.c **** 
  87:/Users/kevinKuwata1/Documents/xcode/ECEN1310Final/Mifare_SERVO/Mifare_SERVO/main.c **** int deleteNext =0;
  88:/Users/kevinKuwata1/Documents/xcode/ECEN1310Final/Mifare_SERVO/Mifare_SERVO/main.c **** int removeTag1 =0;
  89:/Users/kevinKuwata1/Documents/xcode/ECEN1310Final/Mifare_SERVO/Mifare_SERVO/main.c **** int removeTag2 = 0; //variable used to identify which tag should be rmeoebed because a tag added 1s
  90:/Users/kevinKuwata1/Documents/xcode/ECEN1310Final/Mifare_SERVO/Mifare_SERVO/main.c **** 
  91:/Users/kevinKuwata1/Documents/xcode/ECEN1310Final/Mifare_SERVO/Mifare_SERVO/main.c **** void initServo(void){
 119               	.LM0:
 120               	.LFBB1:
 121               	/* prologue: function */
 122               	/* frame size = 0 */
 123               	/* stack size = 0 */
 124               	.L__stack_usage = 0
  92:/Users/kevinKuwata1/Documents/xcode/ECEN1310Final/Mifare_SERVO/Mifare_SERVO/main.c ****     //            //make A5 output.
  93:/Users/kevinKuwata1/Documents/xcode/ECEN1310Final/Mifare_SERVO/Mifare_SERVO/main.c ****     //            *ddr=BV(pin);      // PORTC declared as output 0xFF is all output 11111 so i have
  94:/Users/kevinKuwata1/Documents/xcode/ECEN1310Final/Mifare_SERVO/Mifare_SERVO/main.c ****     //            *port=BV(pin);     // PORTC is initially LOW OFF the led initially /
  95:/Users/kevinKuwata1/Documents/xcode/ECEN1310Final/Mifare_SERVO/Mifare_SERVO/main.c ****     //to do make the register parameter work
  96:/Users/kevinKuwata1/Documents/xcode/ECEN1310Final/Mifare_SERVO/Mifare_SERVO/main.c ****     
  97:/Users/kevinKuwata1/Documents/xcode/ECEN1310Final/Mifare_SERVO/Mifare_SERVO/main.c ****     DDRC = BV(5);
 126               	.LM1:
 127 0000 90E2      		ldi r25,lo8(32)
 128 0002 97B9      		out 0x7,r25
  98:/Users/kevinKuwata1/Documents/xcode/ECEN1310Final/Mifare_SERVO/Mifare_SERVO/main.c ****     //set to closed position
  99:/Users/kevinKuwata1/Documents/xcode/ECEN1310Final/Mifare_SERVO/Mifare_SERVO/main.c ****     PORTC = (BV(5));
 130               	.LM2:
 131 0004 98B9      		out 0x8,r25
 132               	.LBB115:
 133               	.LBB116:
 135               	.Ltext1:
   1:/usr/local/Cellar/avr-gcc/6.2.0/avr/include/util/delay.h **** /* Copyright (c) 2002, Marek Michalkiewicz
   2:/usr/local/Cellar/avr-gcc/6.2.0/avr/include/util/delay.h ****    Copyright (c) 2004,2005,2007 Joerg Wunsch
   3:/usr/local/Cellar/avr-gcc/6.2.0/avr/include/util/delay.h ****    Copyright (c) 2007  Florin-Viorel Petrov
   4:/usr/local/Cellar/avr-gcc/6.2.0/avr/include/util/delay.h ****    All rights reserved.
   5:/usr/local/Cellar/avr-gcc/6.2.0/avr/include/util/delay.h **** 
   6:/usr/local/Cellar/avr-gcc/6.2.0/avr/include/util/delay.h ****    Redistribution and use in source and binary forms, with or without
   7:/usr/local/Cellar/avr-gcc/6.2.0/avr/include/util/delay.h ****    modification, are permitted provided that the following conditions are met:
   8:/usr/local/Cellar/avr-gcc/6.2.0/avr/include/util/delay.h **** 
   9:/usr/local/Cellar/avr-gcc/6.2.0/avr/include/util/delay.h ****    * Redistributions of source code must retain the above copyright
  10:/usr/local/Cellar/avr-gcc/6.2.0/avr/include/util/delay.h ****      notice, this list of conditions and the following disclaimer.
  11:/usr/local/Cellar/avr-gcc/6.2.0/avr/include/util/delay.h **** 
  12:/usr/local/Cellar/avr-gcc/6.2.0/avr/include/util/delay.h ****    * Redistributions in binary form must reproduce the above copyright
  13:/usr/local/Cellar/avr-gcc/6.2.0/avr/include/util/delay.h ****      notice, this list of conditions and the following disclaimer in
  14:/usr/local/Cellar/avr-gcc/6.2.0/avr/include/util/delay.h ****      the documentation and/or other materials provided with the
  15:/usr/local/Cellar/avr-gcc/6.2.0/avr/include/util/delay.h ****      distribution.
  16:/usr/local/Cellar/avr-gcc/6.2.0/avr/include/util/delay.h **** 
  17:/usr/local/Cellar/avr-gcc/6.2.0/avr/include/util/delay.h ****    * Neither the name of the copyright holders nor the names of
  18:/usr/local/Cellar/avr-gcc/6.2.0/avr/include/util/delay.h ****      contributors may be used to endorse or promote products derived
  19:/usr/local/Cellar/avr-gcc/6.2.0/avr/include/util/delay.h ****      from this software without specific prior written permission.
  20:/usr/local/Cellar/avr-gcc/6.2.0/avr/include/util/delay.h **** 
  21:/usr/local/Cellar/avr-gcc/6.2.0/avr/include/util/delay.h ****   THIS SOFTWARE IS PROVIDED BY THE COPYRIGHT HOLDERS AND CONTRIBUTORS "AS IS"
  22:/usr/local/Cellar/avr-gcc/6.2.0/avr/include/util/delay.h ****   AND ANY EXPRESS OR IMPLIED WARRANTIES, INCLUDING, BUT NOT LIMITED TO, THE
  23:/usr/local/Cellar/avr-gcc/6.2.0/avr/include/util/delay.h ****   IMPLIED WARRANTIES OF MERCHANTABILITY AND FITNESS FOR A PARTICULAR PURPOSE
  24:/usr/local/Cellar/avr-gcc/6.2.0/avr/include/util/delay.h ****   ARE DISCLAIMED. IN NO EVENT SHALL THE COPYRIGHT OWNER OR CONTRIBUTORS BE
  25:/usr/local/Cellar/avr-gcc/6.2.0/avr/include/util/delay.h ****   LIABLE FOR ANY DIRECT, INDIRECT, INCIDENTAL, SPECIAL, EXEMPLARY, OR
  26:/usr/local/Cellar/avr-gcc/6.2.0/avr/include/util/delay.h ****   CONSEQUENTIAL DAMAGES (INCLUDING, BUT NOT LIMITED TO, PROCUREMENT OF
  27:/usr/local/Cellar/avr-gcc/6.2.0/avr/include/util/delay.h ****   SUBSTITUTE GOODS OR SERVICES; LOSS OF USE, DATA, OR PROFITS; OR BUSINESS
  28:/usr/local/Cellar/avr-gcc/6.2.0/avr/include/util/delay.h ****   INTERRUPTION) HOWEVER CAUSED AND ON ANY THEORY OF LIABILITY, WHETHER IN
  29:/usr/local/Cellar/avr-gcc/6.2.0/avr/include/util/delay.h ****   CONTRACT, STRICT LIABILITY, OR TORT (INCLUDING NEGLIGENCE OR OTHERWISE)
  30:/usr/local/Cellar/avr-gcc/6.2.0/avr/include/util/delay.h ****   ARISING IN ANY WAY OUT OF THE USE OF THIS SOFTWARE, EVEN IF ADVISED OF THE
  31:/usr/local/Cellar/avr-gcc/6.2.0/avr/include/util/delay.h ****   POSSIBILITY OF SUCH DAMAGE. */
  32:/usr/local/Cellar/avr-gcc/6.2.0/avr/include/util/delay.h **** 
  33:/usr/local/Cellar/avr-gcc/6.2.0/avr/include/util/delay.h **** /* $Id: delay.h.in 2506 2016-02-08 10:05:45Z joerg_wunsch $ */
  34:/usr/local/Cellar/avr-gcc/6.2.0/avr/include/util/delay.h **** 
  35:/usr/local/Cellar/avr-gcc/6.2.0/avr/include/util/delay.h **** #ifndef _UTIL_DELAY_H_
  36:/usr/local/Cellar/avr-gcc/6.2.0/avr/include/util/delay.h **** #define _UTIL_DELAY_H_ 1
  37:/usr/local/Cellar/avr-gcc/6.2.0/avr/include/util/delay.h **** 
  38:/usr/local/Cellar/avr-gcc/6.2.0/avr/include/util/delay.h **** #ifndef __DOXYGEN__
  39:/usr/local/Cellar/avr-gcc/6.2.0/avr/include/util/delay.h **** #  ifndef __HAS_DELAY_CYCLES
  40:/usr/local/Cellar/avr-gcc/6.2.0/avr/include/util/delay.h **** #    define __HAS_DELAY_CYCLES 1
  41:/usr/local/Cellar/avr-gcc/6.2.0/avr/include/util/delay.h **** #  endif
  42:/usr/local/Cellar/avr-gcc/6.2.0/avr/include/util/delay.h **** #endif  /* __DOXYGEN__ */
  43:/usr/local/Cellar/avr-gcc/6.2.0/avr/include/util/delay.h **** 
  44:/usr/local/Cellar/avr-gcc/6.2.0/avr/include/util/delay.h **** #include <inttypes.h>
  45:/usr/local/Cellar/avr-gcc/6.2.0/avr/include/util/delay.h **** #include <util/delay_basic.h>
  46:/usr/local/Cellar/avr-gcc/6.2.0/avr/include/util/delay.h **** #include <math.h>
  47:/usr/local/Cellar/avr-gcc/6.2.0/avr/include/util/delay.h **** 
  48:/usr/local/Cellar/avr-gcc/6.2.0/avr/include/util/delay.h **** /** \file */
  49:/usr/local/Cellar/avr-gcc/6.2.0/avr/include/util/delay.h **** /** \defgroup util_delay <util/delay.h>: Convenience functions for busy-wait delay loops
  50:/usr/local/Cellar/avr-gcc/6.2.0/avr/include/util/delay.h ****     \code
  51:/usr/local/Cellar/avr-gcc/6.2.0/avr/include/util/delay.h ****     #define F_CPU 1000000UL  // 1 MHz
  52:/usr/local/Cellar/avr-gcc/6.2.0/avr/include/util/delay.h ****     //#define F_CPU 14.7456E6
  53:/usr/local/Cellar/avr-gcc/6.2.0/avr/include/util/delay.h ****     #include <util/delay.h>
  54:/usr/local/Cellar/avr-gcc/6.2.0/avr/include/util/delay.h ****     \endcode
  55:/usr/local/Cellar/avr-gcc/6.2.0/avr/include/util/delay.h **** 
  56:/usr/local/Cellar/avr-gcc/6.2.0/avr/include/util/delay.h ****     \note As an alternative method, it is possible to pass the
  57:/usr/local/Cellar/avr-gcc/6.2.0/avr/include/util/delay.h ****     F_CPU macro down to the compiler from the Makefile.
  58:/usr/local/Cellar/avr-gcc/6.2.0/avr/include/util/delay.h ****     Obviously, in that case, no \c \#define statement should be
  59:/usr/local/Cellar/avr-gcc/6.2.0/avr/include/util/delay.h ****     used.
  60:/usr/local/Cellar/avr-gcc/6.2.0/avr/include/util/delay.h **** 
  61:/usr/local/Cellar/avr-gcc/6.2.0/avr/include/util/delay.h ****     The functions in this header file are wrappers around the basic
  62:/usr/local/Cellar/avr-gcc/6.2.0/avr/include/util/delay.h ****     busy-wait functions from <util/delay_basic.h>.  They are meant as
  63:/usr/local/Cellar/avr-gcc/6.2.0/avr/include/util/delay.h ****     convenience functions where actual time values can be specified
  64:/usr/local/Cellar/avr-gcc/6.2.0/avr/include/util/delay.h ****     rather than a number of cycles to wait for.  The idea behind is
  65:/usr/local/Cellar/avr-gcc/6.2.0/avr/include/util/delay.h ****     that compile-time constant expressions will be eliminated by
  66:/usr/local/Cellar/avr-gcc/6.2.0/avr/include/util/delay.h ****     compiler optimization so floating-point expressions can be used
  67:/usr/local/Cellar/avr-gcc/6.2.0/avr/include/util/delay.h ****     to calculate the number of delay cycles needed based on the CPU
  68:/usr/local/Cellar/avr-gcc/6.2.0/avr/include/util/delay.h ****     frequency passed by the macro F_CPU.
  69:/usr/local/Cellar/avr-gcc/6.2.0/avr/include/util/delay.h **** 
  70:/usr/local/Cellar/avr-gcc/6.2.0/avr/include/util/delay.h ****     \note In order for these functions to work as intended, compiler
  71:/usr/local/Cellar/avr-gcc/6.2.0/avr/include/util/delay.h ****     optimizations <em>must</em> be enabled, and the delay time
  72:/usr/local/Cellar/avr-gcc/6.2.0/avr/include/util/delay.h ****     <em>must</em> be an expression that is a known constant at
  73:/usr/local/Cellar/avr-gcc/6.2.0/avr/include/util/delay.h ****     compile-time.  If these requirements are not met, the resulting
  74:/usr/local/Cellar/avr-gcc/6.2.0/avr/include/util/delay.h ****     delay will be much longer (and basically unpredictable), and
  75:/usr/local/Cellar/avr-gcc/6.2.0/avr/include/util/delay.h ****     applications that otherwise do not use floating-point calculations
  76:/usr/local/Cellar/avr-gcc/6.2.0/avr/include/util/delay.h ****     will experience severe code bloat by the floating-point library
  77:/usr/local/Cellar/avr-gcc/6.2.0/avr/include/util/delay.h ****     routines linked into the application.
  78:/usr/local/Cellar/avr-gcc/6.2.0/avr/include/util/delay.h **** 
  79:/usr/local/Cellar/avr-gcc/6.2.0/avr/include/util/delay.h ****     The functions available allow the specification of microsecond, and
  80:/usr/local/Cellar/avr-gcc/6.2.0/avr/include/util/delay.h ****     millisecond delays directly, using the application-supplied macro
  81:/usr/local/Cellar/avr-gcc/6.2.0/avr/include/util/delay.h ****     F_CPU as the CPU clock frequency (in Hertz).
  82:/usr/local/Cellar/avr-gcc/6.2.0/avr/include/util/delay.h **** 
  83:/usr/local/Cellar/avr-gcc/6.2.0/avr/include/util/delay.h **** */
  84:/usr/local/Cellar/avr-gcc/6.2.0/avr/include/util/delay.h **** 
  85:/usr/local/Cellar/avr-gcc/6.2.0/avr/include/util/delay.h **** #if !defined(__DOXYGEN__)
  86:/usr/local/Cellar/avr-gcc/6.2.0/avr/include/util/delay.h **** static __inline__ void _delay_us(double __us) __attribute__((__always_inline__));
  87:/usr/local/Cellar/avr-gcc/6.2.0/avr/include/util/delay.h **** static __inline__ void _delay_ms(double __ms) __attribute__((__always_inline__));
  88:/usr/local/Cellar/avr-gcc/6.2.0/avr/include/util/delay.h **** #endif
  89:/usr/local/Cellar/avr-gcc/6.2.0/avr/include/util/delay.h **** 
  90:/usr/local/Cellar/avr-gcc/6.2.0/avr/include/util/delay.h **** #ifndef F_CPU
  91:/usr/local/Cellar/avr-gcc/6.2.0/avr/include/util/delay.h **** /* prevent compiler error by supplying a default */
  92:/usr/local/Cellar/avr-gcc/6.2.0/avr/include/util/delay.h **** # warning "F_CPU not defined for <util/delay.h>"
  93:/usr/local/Cellar/avr-gcc/6.2.0/avr/include/util/delay.h **** /** \ingroup util_delay
  94:/usr/local/Cellar/avr-gcc/6.2.0/avr/include/util/delay.h ****     \def F_CPU
  95:/usr/local/Cellar/avr-gcc/6.2.0/avr/include/util/delay.h ****     \brief CPU frequency in Hz
  96:/usr/local/Cellar/avr-gcc/6.2.0/avr/include/util/delay.h **** 
  97:/usr/local/Cellar/avr-gcc/6.2.0/avr/include/util/delay.h ****     The macro F_CPU specifies the CPU frequency to be considered by
  98:/usr/local/Cellar/avr-gcc/6.2.0/avr/include/util/delay.h ****     the delay macros.  This macro is normally supplied by the
  99:/usr/local/Cellar/avr-gcc/6.2.0/avr/include/util/delay.h ****     environment (e.g. from within a project header, or the project's
 100:/usr/local/Cellar/avr-gcc/6.2.0/avr/include/util/delay.h ****     Makefile).  The value 1 MHz here is only provided as a "vanilla"
 101:/usr/local/Cellar/avr-gcc/6.2.0/avr/include/util/delay.h ****     fallback if no such user-provided definition could be found.
 102:/usr/local/Cellar/avr-gcc/6.2.0/avr/include/util/delay.h **** 
 103:/usr/local/Cellar/avr-gcc/6.2.0/avr/include/util/delay.h ****     In terms of the delay functions, the CPU frequency can be given as
 104:/usr/local/Cellar/avr-gcc/6.2.0/avr/include/util/delay.h ****     a floating-point constant (e.g. 3.6864E6 for 3.6864 MHz).
 105:/usr/local/Cellar/avr-gcc/6.2.0/avr/include/util/delay.h ****     However, the macros in <util/setbaud.h> require it to be an
 106:/usr/local/Cellar/avr-gcc/6.2.0/avr/include/util/delay.h ****     integer value.
 107:/usr/local/Cellar/avr-gcc/6.2.0/avr/include/util/delay.h ****  */
 108:/usr/local/Cellar/avr-gcc/6.2.0/avr/include/util/delay.h **** # define F_CPU 1000000UL
 109:/usr/local/Cellar/avr-gcc/6.2.0/avr/include/util/delay.h **** #endif
 110:/usr/local/Cellar/avr-gcc/6.2.0/avr/include/util/delay.h **** 
 111:/usr/local/Cellar/avr-gcc/6.2.0/avr/include/util/delay.h **** #ifndef __OPTIMIZE__
 112:/usr/local/Cellar/avr-gcc/6.2.0/avr/include/util/delay.h **** # warning "Compiler optimizations disabled; functions from <util/delay.h> won't work as designed"
 113:/usr/local/Cellar/avr-gcc/6.2.0/avr/include/util/delay.h **** #endif
 114:/usr/local/Cellar/avr-gcc/6.2.0/avr/include/util/delay.h **** 
 115:/usr/local/Cellar/avr-gcc/6.2.0/avr/include/util/delay.h **** #if __HAS_DELAY_CYCLES && defined(__OPTIMIZE__) && \
 116:/usr/local/Cellar/avr-gcc/6.2.0/avr/include/util/delay.h ****   !defined(__DELAY_BACKWARD_COMPATIBLE__) &&	   \
 117:/usr/local/Cellar/avr-gcc/6.2.0/avr/include/util/delay.h ****   __STDC_HOSTED__
 118:/usr/local/Cellar/avr-gcc/6.2.0/avr/include/util/delay.h **** #  include <math.h>
 119:/usr/local/Cellar/avr-gcc/6.2.0/avr/include/util/delay.h **** #endif
 120:/usr/local/Cellar/avr-gcc/6.2.0/avr/include/util/delay.h **** 
 121:/usr/local/Cellar/avr-gcc/6.2.0/avr/include/util/delay.h **** /**
 122:/usr/local/Cellar/avr-gcc/6.2.0/avr/include/util/delay.h ****    \ingroup util_delay
 123:/usr/local/Cellar/avr-gcc/6.2.0/avr/include/util/delay.h **** 
 124:/usr/local/Cellar/avr-gcc/6.2.0/avr/include/util/delay.h ****    Perform a delay of \c __ms milliseconds, using _delay_loop_2().
 125:/usr/local/Cellar/avr-gcc/6.2.0/avr/include/util/delay.h **** 
 126:/usr/local/Cellar/avr-gcc/6.2.0/avr/include/util/delay.h ****    The macro F_CPU is supposed to be defined to a
 127:/usr/local/Cellar/avr-gcc/6.2.0/avr/include/util/delay.h ****    constant defining the CPU clock frequency (in Hertz).
 128:/usr/local/Cellar/avr-gcc/6.2.0/avr/include/util/delay.h **** 
 129:/usr/local/Cellar/avr-gcc/6.2.0/avr/include/util/delay.h ****    The maximal possible delay is 262.14 ms / F_CPU in MHz.
 130:/usr/local/Cellar/avr-gcc/6.2.0/avr/include/util/delay.h **** 
 131:/usr/local/Cellar/avr-gcc/6.2.0/avr/include/util/delay.h ****    When the user request delay which exceed the maximum possible one,
 132:/usr/local/Cellar/avr-gcc/6.2.0/avr/include/util/delay.h ****    _delay_ms() provides a decreased resolution functionality. In this
 133:/usr/local/Cellar/avr-gcc/6.2.0/avr/include/util/delay.h ****    mode _delay_ms() will work with a resolution of 1/10 ms, providing
 134:/usr/local/Cellar/avr-gcc/6.2.0/avr/include/util/delay.h ****    delays up to 6.5535 seconds (independent from CPU frequency).  The
 135:/usr/local/Cellar/avr-gcc/6.2.0/avr/include/util/delay.h ****    user will not be informed about decreased resolution.
 136:/usr/local/Cellar/avr-gcc/6.2.0/avr/include/util/delay.h **** 
 137:/usr/local/Cellar/avr-gcc/6.2.0/avr/include/util/delay.h ****    If the avr-gcc toolchain has __builtin_avr_delay_cycles()
 138:/usr/local/Cellar/avr-gcc/6.2.0/avr/include/util/delay.h ****    support, maximal possible delay is 4294967.295 ms/ F_CPU in MHz. For
 139:/usr/local/Cellar/avr-gcc/6.2.0/avr/include/util/delay.h ****    values greater than the maximal possible delay, overflows results in
 140:/usr/local/Cellar/avr-gcc/6.2.0/avr/include/util/delay.h ****    no delay i.e., 0ms.
 141:/usr/local/Cellar/avr-gcc/6.2.0/avr/include/util/delay.h **** 
 142:/usr/local/Cellar/avr-gcc/6.2.0/avr/include/util/delay.h ****    Conversion of \c __ms into clock cycles may not always result in
 143:/usr/local/Cellar/avr-gcc/6.2.0/avr/include/util/delay.h ****    integer.  By default, the clock cycles rounded up to next
 144:/usr/local/Cellar/avr-gcc/6.2.0/avr/include/util/delay.h ****    integer. This ensures that the user gets at least \c __ms
 145:/usr/local/Cellar/avr-gcc/6.2.0/avr/include/util/delay.h ****    microseconds of delay.
 146:/usr/local/Cellar/avr-gcc/6.2.0/avr/include/util/delay.h **** 
 147:/usr/local/Cellar/avr-gcc/6.2.0/avr/include/util/delay.h ****    Alternatively, by defining the macro \c __DELAY_ROUND_DOWN__, or
 148:/usr/local/Cellar/avr-gcc/6.2.0/avr/include/util/delay.h ****    \c __DELAY_ROUND_CLOSEST__, before including this header file, the
 149:/usr/local/Cellar/avr-gcc/6.2.0/avr/include/util/delay.h ****    algorithm can be made to round down, or round to closest integer,
 150:/usr/local/Cellar/avr-gcc/6.2.0/avr/include/util/delay.h ****    respectively.
 151:/usr/local/Cellar/avr-gcc/6.2.0/avr/include/util/delay.h **** 
 152:/usr/local/Cellar/avr-gcc/6.2.0/avr/include/util/delay.h ****    \note
 153:/usr/local/Cellar/avr-gcc/6.2.0/avr/include/util/delay.h **** 
 154:/usr/local/Cellar/avr-gcc/6.2.0/avr/include/util/delay.h ****    The implementation of _delay_ms() based on
 155:/usr/local/Cellar/avr-gcc/6.2.0/avr/include/util/delay.h ****    __builtin_avr_delay_cycles() is not backward compatible with older
 156:/usr/local/Cellar/avr-gcc/6.2.0/avr/include/util/delay.h ****    implementations.  In order to get functionality backward compatible
 157:/usr/local/Cellar/avr-gcc/6.2.0/avr/include/util/delay.h ****    with previous versions, the macro \c "__DELAY_BACKWARD_COMPATIBLE__"
 158:/usr/local/Cellar/avr-gcc/6.2.0/avr/include/util/delay.h ****    must be defined before including this header file. Also, the
 159:/usr/local/Cellar/avr-gcc/6.2.0/avr/include/util/delay.h ****    backward compatible algorithm will be chosen if the code is
 160:/usr/local/Cellar/avr-gcc/6.2.0/avr/include/util/delay.h ****    compiled in a <em>freestanding environment</em> (GCC option
 161:/usr/local/Cellar/avr-gcc/6.2.0/avr/include/util/delay.h ****    \c -ffreestanding), as the math functions required for rounding are
 162:/usr/local/Cellar/avr-gcc/6.2.0/avr/include/util/delay.h ****    not available to the compiler then.
 163:/usr/local/Cellar/avr-gcc/6.2.0/avr/include/util/delay.h **** 
 164:/usr/local/Cellar/avr-gcc/6.2.0/avr/include/util/delay.h ****  */
 165:/usr/local/Cellar/avr-gcc/6.2.0/avr/include/util/delay.h **** void
 166:/usr/local/Cellar/avr-gcc/6.2.0/avr/include/util/delay.h **** _delay_ms(double __ms)
 167:/usr/local/Cellar/avr-gcc/6.2.0/avr/include/util/delay.h **** {
 168:/usr/local/Cellar/avr-gcc/6.2.0/avr/include/util/delay.h **** 	double __tmp ;
 169:/usr/local/Cellar/avr-gcc/6.2.0/avr/include/util/delay.h **** #if __HAS_DELAY_CYCLES && defined(__OPTIMIZE__) && \
 170:/usr/local/Cellar/avr-gcc/6.2.0/avr/include/util/delay.h ****   !defined(__DELAY_BACKWARD_COMPATIBLE__) &&	   \
 171:/usr/local/Cellar/avr-gcc/6.2.0/avr/include/util/delay.h ****   __STDC_HOSTED__
 172:/usr/local/Cellar/avr-gcc/6.2.0/avr/include/util/delay.h **** 	uint32_t __ticks_dc;
 173:/usr/local/Cellar/avr-gcc/6.2.0/avr/include/util/delay.h **** 	extern void __builtin_avr_delay_cycles(unsigned long);
 174:/usr/local/Cellar/avr-gcc/6.2.0/avr/include/util/delay.h **** 	__tmp = ((F_CPU) / 1e3) * __ms;
 175:/usr/local/Cellar/avr-gcc/6.2.0/avr/include/util/delay.h **** 
 176:/usr/local/Cellar/avr-gcc/6.2.0/avr/include/util/delay.h **** 	#if defined(__DELAY_ROUND_DOWN__)
 177:/usr/local/Cellar/avr-gcc/6.2.0/avr/include/util/delay.h **** 		__ticks_dc = (uint32_t)fabs(__tmp);
 178:/usr/local/Cellar/avr-gcc/6.2.0/avr/include/util/delay.h **** 
 179:/usr/local/Cellar/avr-gcc/6.2.0/avr/include/util/delay.h **** 	#elif defined(__DELAY_ROUND_CLOSEST__)
 180:/usr/local/Cellar/avr-gcc/6.2.0/avr/include/util/delay.h **** 		__ticks_dc = (uint32_t)(fabs(__tmp)+0.5);
 181:/usr/local/Cellar/avr-gcc/6.2.0/avr/include/util/delay.h **** 
 182:/usr/local/Cellar/avr-gcc/6.2.0/avr/include/util/delay.h **** 	#else
 183:/usr/local/Cellar/avr-gcc/6.2.0/avr/include/util/delay.h **** 		//round up by default
 184:/usr/local/Cellar/avr-gcc/6.2.0/avr/include/util/delay.h **** 		__ticks_dc = (uint32_t)(ceil(fabs(__tmp)));
 185:/usr/local/Cellar/avr-gcc/6.2.0/avr/include/util/delay.h **** 	#endif
 186:/usr/local/Cellar/avr-gcc/6.2.0/avr/include/util/delay.h **** 
 187:/usr/local/Cellar/avr-gcc/6.2.0/avr/include/util/delay.h **** 	__builtin_avr_delay_cycles(__ticks_dc);
 188:/usr/local/Cellar/avr-gcc/6.2.0/avr/include/util/delay.h **** 
 189:/usr/local/Cellar/avr-gcc/6.2.0/avr/include/util/delay.h **** #else
 190:/usr/local/Cellar/avr-gcc/6.2.0/avr/include/util/delay.h **** 	uint16_t __ticks;
 191:/usr/local/Cellar/avr-gcc/6.2.0/avr/include/util/delay.h **** 	__tmp = ((F_CPU) / 4e3) * __ms;
 192:/usr/local/Cellar/avr-gcc/6.2.0/avr/include/util/delay.h **** 	if (__tmp < 1.0)
 193:/usr/local/Cellar/avr-gcc/6.2.0/avr/include/util/delay.h **** 		__ticks = 1;
 194:/usr/local/Cellar/avr-gcc/6.2.0/avr/include/util/delay.h **** 	else if (__tmp > 65535)
 195:/usr/local/Cellar/avr-gcc/6.2.0/avr/include/util/delay.h **** 	{
 196:/usr/local/Cellar/avr-gcc/6.2.0/avr/include/util/delay.h **** 		//	__ticks = requested delay in 1/10 ms
 197:/usr/local/Cellar/avr-gcc/6.2.0/avr/include/util/delay.h **** 		__ticks = (uint16_t) (__ms * 10.0);
 198:/usr/local/Cellar/avr-gcc/6.2.0/avr/include/util/delay.h **** 		while(__ticks)
 199:/usr/local/Cellar/avr-gcc/6.2.0/avr/include/util/delay.h **** 		{
 200:/usr/local/Cellar/avr-gcc/6.2.0/avr/include/util/delay.h **** 			// wait 1/10 ms
 201:/usr/local/Cellar/avr-gcc/6.2.0/avr/include/util/delay.h **** 			_delay_loop_2(((F_CPU) / 4e3) / 10);
 202:/usr/local/Cellar/avr-gcc/6.2.0/avr/include/util/delay.h **** 			__ticks --;
 203:/usr/local/Cellar/avr-gcc/6.2.0/avr/include/util/delay.h **** 		}
 204:/usr/local/Cellar/avr-gcc/6.2.0/avr/include/util/delay.h **** 		return;
 205:/usr/local/Cellar/avr-gcc/6.2.0/avr/include/util/delay.h **** 	}
 206:/usr/local/Cellar/avr-gcc/6.2.0/avr/include/util/delay.h **** 	else
 207:/usr/local/Cellar/avr-gcc/6.2.0/avr/include/util/delay.h **** 		__ticks = (uint16_t)__tmp;
 208:/usr/local/Cellar/avr-gcc/6.2.0/avr/include/util/delay.h **** 	_delay_loop_2(__ticks);
 209:/usr/local/Cellar/avr-gcc/6.2.0/avr/include/util/delay.h **** #endif
 210:/usr/local/Cellar/avr-gcc/6.2.0/avr/include/util/delay.h **** }
 211:/usr/local/Cellar/avr-gcc/6.2.0/avr/include/util/delay.h **** 
 212:/usr/local/Cellar/avr-gcc/6.2.0/avr/include/util/delay.h **** /**
 213:/usr/local/Cellar/avr-gcc/6.2.0/avr/include/util/delay.h ****    \ingroup util_delay
 214:/usr/local/Cellar/avr-gcc/6.2.0/avr/include/util/delay.h **** 
 215:/usr/local/Cellar/avr-gcc/6.2.0/avr/include/util/delay.h ****    Perform a delay of \c __us microseconds, using _delay_loop_1().
 216:/usr/local/Cellar/avr-gcc/6.2.0/avr/include/util/delay.h **** 
 217:/usr/local/Cellar/avr-gcc/6.2.0/avr/include/util/delay.h ****    The macro F_CPU is supposed to be defined to a
 218:/usr/local/Cellar/avr-gcc/6.2.0/avr/include/util/delay.h ****    constant defining the CPU clock frequency (in Hertz).
 219:/usr/local/Cellar/avr-gcc/6.2.0/avr/include/util/delay.h **** 
 220:/usr/local/Cellar/avr-gcc/6.2.0/avr/include/util/delay.h ****    The maximal possible delay is 768 us / F_CPU in MHz.
 221:/usr/local/Cellar/avr-gcc/6.2.0/avr/include/util/delay.h **** 
 222:/usr/local/Cellar/avr-gcc/6.2.0/avr/include/util/delay.h ****    If the user requests a delay greater than the maximal possible one,
 223:/usr/local/Cellar/avr-gcc/6.2.0/avr/include/util/delay.h ****    _delay_us() will automatically call _delay_ms() instead.  The user
 224:/usr/local/Cellar/avr-gcc/6.2.0/avr/include/util/delay.h ****    will not be informed about this case.
 225:/usr/local/Cellar/avr-gcc/6.2.0/avr/include/util/delay.h **** 
 226:/usr/local/Cellar/avr-gcc/6.2.0/avr/include/util/delay.h ****    If the avr-gcc toolchain has __builtin_avr_delay_cycles()
 227:/usr/local/Cellar/avr-gcc/6.2.0/avr/include/util/delay.h ****    support, maximal possible delay is 4294967.295 us/ F_CPU in MHz. For
 228:/usr/local/Cellar/avr-gcc/6.2.0/avr/include/util/delay.h ****    values greater than the maximal possible delay, overflow results in
 229:/usr/local/Cellar/avr-gcc/6.2.0/avr/include/util/delay.h ****    no delay i.e., 0us.
 230:/usr/local/Cellar/avr-gcc/6.2.0/avr/include/util/delay.h **** 
 231:/usr/local/Cellar/avr-gcc/6.2.0/avr/include/util/delay.h ****    Conversion of \c __us into clock cycles may not always result in
 232:/usr/local/Cellar/avr-gcc/6.2.0/avr/include/util/delay.h ****    integer.  By default, the clock cycles rounded up to next
 233:/usr/local/Cellar/avr-gcc/6.2.0/avr/include/util/delay.h ****    integer. This ensures that the user gets at least \c __us
 234:/usr/local/Cellar/avr-gcc/6.2.0/avr/include/util/delay.h ****    microseconds of delay.
 235:/usr/local/Cellar/avr-gcc/6.2.0/avr/include/util/delay.h **** 
 236:/usr/local/Cellar/avr-gcc/6.2.0/avr/include/util/delay.h ****    Alternatively, by defining the macro \c __DELAY_ROUND_DOWN__, or
 237:/usr/local/Cellar/avr-gcc/6.2.0/avr/include/util/delay.h ****    \c __DELAY_ROUND_CLOSEST__, before including this header file, the
 238:/usr/local/Cellar/avr-gcc/6.2.0/avr/include/util/delay.h ****    algorithm can be made to round down, or round to closest integer,
 239:/usr/local/Cellar/avr-gcc/6.2.0/avr/include/util/delay.h ****    respectively.
 240:/usr/local/Cellar/avr-gcc/6.2.0/avr/include/util/delay.h **** 
 241:/usr/local/Cellar/avr-gcc/6.2.0/avr/include/util/delay.h ****    \note
 242:/usr/local/Cellar/avr-gcc/6.2.0/avr/include/util/delay.h **** 
 243:/usr/local/Cellar/avr-gcc/6.2.0/avr/include/util/delay.h ****    The implementation of _delay_ms() based on
 244:/usr/local/Cellar/avr-gcc/6.2.0/avr/include/util/delay.h ****    __builtin_avr_delay_cycles() is not backward compatible with older
 245:/usr/local/Cellar/avr-gcc/6.2.0/avr/include/util/delay.h ****    implementations.  In order to get functionality backward compatible
 246:/usr/local/Cellar/avr-gcc/6.2.0/avr/include/util/delay.h ****    with previous versions, the macro \c __DELAY_BACKWARD_COMPATIBLE__
 247:/usr/local/Cellar/avr-gcc/6.2.0/avr/include/util/delay.h ****    must be defined before including this header file. Also, the
 248:/usr/local/Cellar/avr-gcc/6.2.0/avr/include/util/delay.h ****    backward compatible algorithm will be chosen if the code is
 249:/usr/local/Cellar/avr-gcc/6.2.0/avr/include/util/delay.h ****    compiled in a <em>freestanding environment</em> (GCC option
 250:/usr/local/Cellar/avr-gcc/6.2.0/avr/include/util/delay.h ****    \c -ffreestanding), as the math functions required for rounding are
 251:/usr/local/Cellar/avr-gcc/6.2.0/avr/include/util/delay.h ****    not available to the compiler then.
 252:/usr/local/Cellar/avr-gcc/6.2.0/avr/include/util/delay.h **** 
 253:/usr/local/Cellar/avr-gcc/6.2.0/avr/include/util/delay.h ****  */
 254:/usr/local/Cellar/avr-gcc/6.2.0/avr/include/util/delay.h **** void
 255:/usr/local/Cellar/avr-gcc/6.2.0/avr/include/util/delay.h **** _delay_us(double __us)
 256:/usr/local/Cellar/avr-gcc/6.2.0/avr/include/util/delay.h **** {
 257:/usr/local/Cellar/avr-gcc/6.2.0/avr/include/util/delay.h **** 	double __tmp ;
 258:/usr/local/Cellar/avr-gcc/6.2.0/avr/include/util/delay.h **** #if __HAS_DELAY_CYCLES && defined(__OPTIMIZE__) && \
 259:/usr/local/Cellar/avr-gcc/6.2.0/avr/include/util/delay.h ****   !defined(__DELAY_BACKWARD_COMPATIBLE__) &&	   \
 260:/usr/local/Cellar/avr-gcc/6.2.0/avr/include/util/delay.h ****   __STDC_HOSTED__
 261:/usr/local/Cellar/avr-gcc/6.2.0/avr/include/util/delay.h **** 	uint32_t __ticks_dc;
 262:/usr/local/Cellar/avr-gcc/6.2.0/avr/include/util/delay.h **** 	extern void __builtin_avr_delay_cycles(unsigned long);
 263:/usr/local/Cellar/avr-gcc/6.2.0/avr/include/util/delay.h **** 	__tmp = ((F_CPU) / 1e6) * __us;
 264:/usr/local/Cellar/avr-gcc/6.2.0/avr/include/util/delay.h **** 
 265:/usr/local/Cellar/avr-gcc/6.2.0/avr/include/util/delay.h **** 	#if defined(__DELAY_ROUND_DOWN__)
 266:/usr/local/Cellar/avr-gcc/6.2.0/avr/include/util/delay.h **** 		__ticks_dc = (uint32_t)fabs(__tmp);
 267:/usr/local/Cellar/avr-gcc/6.2.0/avr/include/util/delay.h **** 
 268:/usr/local/Cellar/avr-gcc/6.2.0/avr/include/util/delay.h **** 	#elif defined(__DELAY_ROUND_CLOSEST__)
 269:/usr/local/Cellar/avr-gcc/6.2.0/avr/include/util/delay.h **** 		__ticks_dc = (uint32_t)(fabs(__tmp)+0.5);
 270:/usr/local/Cellar/avr-gcc/6.2.0/avr/include/util/delay.h **** 
 271:/usr/local/Cellar/avr-gcc/6.2.0/avr/include/util/delay.h **** 	#else
 272:/usr/local/Cellar/avr-gcc/6.2.0/avr/include/util/delay.h **** 		//round up by default
 273:/usr/local/Cellar/avr-gcc/6.2.0/avr/include/util/delay.h **** 		__ticks_dc = (uint32_t)(ceil(fabs(__tmp)));
 274:/usr/local/Cellar/avr-gcc/6.2.0/avr/include/util/delay.h **** 	#endif
 275:/usr/local/Cellar/avr-gcc/6.2.0/avr/include/util/delay.h **** 
 276:/usr/local/Cellar/avr-gcc/6.2.0/avr/include/util/delay.h **** 	__builtin_avr_delay_cycles(__ticks_dc);
 137               	.LM3:
 138 0006 EFEC      		ldi r30,lo8(1999)
 139 0008 F7E0      		ldi r31,hi8(1999)
 140 000a 3197      	1:	sbiw r30,1
 141 000c 01F4      		brne 1b
 142 000e 00C0      		rjmp .
 143 0010 0000      		nop
 144               	.LBE116:
 145               	.LBE115:
 147               	.Ltext2:
 100:/Users/kevinKuwata1/Documents/xcode/ECEN1310Final/Mifare_SERVO/Mifare_SERVO/main.c ****     _delay_us(1000);
 101:/Users/kevinKuwata1/Documents/xcode/ECEN1310Final/Mifare_SERVO/Mifare_SERVO/main.c ****     PORTC   ^=BV(5);
 149               	.LM4:
 150 0012 88B1      		in r24,0x8
 151 0014 8927      		eor r24,r25
 152 0016 88B9      		out 0x8,r24
 153               	.LBB117:
 154               	.LBB118:
 156               	.Ltext3:
 158               	.LM5:
 159 0018 8FE6      		ldi r24,lo8(-27537)
 160 001a 94E9      		ldi r25,hi8(-27537)
 161 001c 0197      	1:	sbiw r24,1
 162 001e 01F4      		brne 1b
 163 0020 00C0      		rjmp .
 164 0022 0000      		nop
 165 0024 0895      		ret
 166               	.LBE118:
 167               	.LBE117:
 169               	.Lscope1:
 171               	.global	initLED
 173               	initLED:
 175               	.Ltext4:
 102:/Users/kevinKuwata1/Documents/xcode/ECEN1310Final/Mifare_SERVO/Mifare_SERVO/main.c ****     _delay_us(19000); //remember that total period is 2ms or 2k micros and you need to do it this w
 103:/Users/kevinKuwata1/Documents/xcode/ECEN1310Final/Mifare_SERVO/Mifare_SERVO/main.c ****     
 104:/Users/kevinKuwata1/Documents/xcode/ECEN1310Final/Mifare_SERVO/Mifare_SERVO/main.c **** }
 105:/Users/kevinKuwata1/Documents/xcode/ECEN1310Final/Mifare_SERVO/Mifare_SERVO/main.c **** 
 106:/Users/kevinKuwata1/Documents/xcode/ECEN1310Final/Mifare_SERVO/Mifare_SERVO/main.c **** void initLED(void){
 177               	.LM6:
 178               	.LFBB2:
 179               	/* prologue: function */
 180               	/* frame size = 0 */
 181               	/* stack size = 0 */
 182               	.L__stack_usage = 0
 107:/Users/kevinKuwata1/Documents/xcode/ECEN1310Final/Mifare_SERVO/Mifare_SERVO/main.c ****     DDRC |= BV(ledG);
 184               	.LM7:
 185 0026 3A9A      		sbi 0x7,2
 108:/Users/kevinKuwata1/Documents/xcode/ECEN1310Final/Mifare_SERVO/Mifare_SERVO/main.c ****     DDRC |= BV(ledR); //output
 187               	.LM8:
 188 0028 399A      		sbi 0x7,1
 189               	.LBB119:
 190               	.LBB120:
 192               	.Ltext5:
 187:/usr/local/Cellar/avr-gcc/6.2.0/avr/include/util/delay.h **** 
 194               	.LM9:
 195 002a 2FEF      		ldi r18,lo8(479999)
 196 002c 82E5      		ldi r24,hi8(479999)
 197 002e 97E0      		ldi r25,hlo8(479999)
 198 0030 2150      	1:	subi r18,1
 199 0032 8040      		sbci r24,0
 200 0034 9040      		sbci r25,0
 201 0036 01F4      		brne 1b
 202 0038 00C0      		rjmp .
 203 003a 0000      		nop
 204               	.LBE120:
 205               	.LBE119:
 207               	.Ltext6:
 109:/Users/kevinKuwata1/Documents/xcode/ECEN1310Final/Mifare_SERVO/Mifare_SERVO/main.c ****     
 110:/Users/kevinKuwata1/Documents/xcode/ECEN1310Final/Mifare_SERVO/Mifare_SERVO/main.c ****     _delay_ms(300);
 111:/Users/kevinKuwata1/Documents/xcode/ECEN1310Final/Mifare_SERVO/Mifare_SERVO/main.c ****     PORTC|= BV(ledG);
 209               	.LM10:
 210 003c 429A      		sbi 0x8,2
 211               	.LBB121:
 212               	.LBB122:
 214               	.Ltext7:
 187:/usr/local/Cellar/avr-gcc/6.2.0/avr/include/util/delay.h **** 
 216               	.LM11:
 217 003e 2FEF      		ldi r18,lo8(319999)
 218 0040 81EE      		ldi r24,hi8(319999)
 219 0042 94E0      		ldi r25,hlo8(319999)
 220 0044 2150      	1:	subi r18,1
 221 0046 8040      		sbci r24,0
 222 0048 9040      		sbci r25,0
 223 004a 01F4      		brne 1b
 224 004c 00C0      		rjmp .
 225 004e 0000      		nop
 226               	.LBE122:
 227               	.LBE121:
 229               	.Ltext8:
 112:/Users/kevinKuwata1/Documents/xcode/ECEN1310Final/Mifare_SERVO/Mifare_SERVO/main.c ****     _delay_ms(200);
 113:/Users/kevinKuwata1/Documents/xcode/ECEN1310Final/Mifare_SERVO/Mifare_SERVO/main.c ****     PORTC ^= BV(ledG);
 231               	.LM12:
 232 0050 88B1      		in r24,0x8
 233 0052 94E0      		ldi r25,lo8(4)
 234 0054 8927      		eor r24,r25
 235 0056 88B9      		out 0x8,r24
 236               	.LBB123:
 237               	.LBB124:
 239               	.Ltext9:
 187:/usr/local/Cellar/avr-gcc/6.2.0/avr/include/util/delay.h **** 
 241               	.LM13:
 242 0058 2FEF      		ldi r18,lo8(479999)
 243 005a 82E5      		ldi r24,hi8(479999)
 244 005c 97E0      		ldi r25,hlo8(479999)
 245 005e 2150      	1:	subi r18,1
 246 0060 8040      		sbci r24,0
 247 0062 9040      		sbci r25,0
 248 0064 01F4      		brne 1b
 249 0066 00C0      		rjmp .
 250 0068 0000      		nop
 251               	.LBE124:
 252               	.LBE123:
 254               	.Ltext10:
 114:/Users/kevinKuwata1/Documents/xcode/ECEN1310Final/Mifare_SERVO/Mifare_SERVO/main.c ****     
 115:/Users/kevinKuwata1/Documents/xcode/ECEN1310Final/Mifare_SERVO/Mifare_SERVO/main.c ****     _delay_ms(300);
 116:/Users/kevinKuwata1/Documents/xcode/ECEN1310Final/Mifare_SERVO/Mifare_SERVO/main.c ****     PORTC |= BV(ledR);     _delay_ms(200);
 256               	.LM14:
 257 006a 419A      		sbi 0x8,1
 258               	.LBB125:
 259               	.LBB126:
 261               	.Ltext11:
 187:/usr/local/Cellar/avr-gcc/6.2.0/avr/include/util/delay.h **** 
 263               	.LM15:
 264 006c 2FEF      		ldi r18,lo8(319999)
 265 006e 81EE      		ldi r24,hi8(319999)
 266 0070 94E0      		ldi r25,hlo8(319999)
 267 0072 2150      	1:	subi r18,1
 268 0074 8040      		sbci r24,0
 269 0076 9040      		sbci r25,0
 270 0078 01F4      		brne 1b
 271 007a 00C0      		rjmp .
 272 007c 0000      		nop
 273               	.LBE126:
 274               	.LBE125:
 276               	.Ltext12:
 117:/Users/kevinKuwata1/Documents/xcode/ECEN1310Final/Mifare_SERVO/Mifare_SERVO/main.c ****     PORTC ^= BV(ledR);
 278               	.LM16:
 279 007e 88B1      		in r24,0x8
 280 0080 92E0      		ldi r25,lo8(2)
 281 0082 8927      		eor r24,r25
 282 0084 88B9      		out 0x8,r24
 283 0086 0895      		ret
 285               	.Lscope2:
 289               	.global	addQ
 291               	addQ:
 118:/Users/kevinKuwata1/Documents/xcode/ECEN1310Final/Mifare_SERVO/Mifare_SERVO/main.c ****     
 119:/Users/kevinKuwata1/Documents/xcode/ECEN1310Final/Mifare_SERVO/Mifare_SERVO/main.c ****     
 120:/Users/kevinKuwata1/Documents/xcode/ECEN1310Final/Mifare_SERVO/Mifare_SERVO/main.c **** }
 121:/Users/kevinKuwata1/Documents/xcode/ECEN1310Final/Mifare_SERVO/Mifare_SERVO/main.c **** 
 122:/Users/kevinKuwata1/Documents/xcode/ECEN1310Final/Mifare_SERVO/Mifare_SERVO/main.c **** int addQ(int str[], int ADD[]){
 293               	.LM17:
 294               	.LFBB3:
 295               	/* prologue: function */
 296               	/* frame size = 0 */
 297               	/* stack size = 0 */
 298               	.L__stack_usage = 0
 299 0088 DC01      		movw r26,r24
 300 008a 1296      		adiw r26,2
 301 008c FB01      		movw r30,r22
 302 008e 3296      		adiw r30,2
 303 0090 0C96      		adiw r24,12
 304               	.L5:
 305               	.LBB127:
 123:/Users/kevinKuwata1/Documents/xcode/ECEN1310Final/Mifare_SERVO/Mifare_SERVO/main.c ****     for(int i=1; i<=5; i++){
 124:/Users/kevinKuwata1/Documents/xcode/ECEN1310Final/Mifare_SERVO/Mifare_SERVO/main.c ****         if(str[i] != ADD[i])
 307               	.LM18:
 308 0092 4D91      		ld r20,X+
 309 0094 5D91      		ld r21,X+
 310 0096 2191      		ld r18,Z+
 311 0098 3191      		ld r19,Z+
 312 009a 4217      		cp r20,r18
 313 009c 5307      		cpc r21,r19
 314 009e 01F4      		brne .L6
 123:/Users/kevinKuwata1/Documents/xcode/ECEN1310Final/Mifare_SERVO/Mifare_SERVO/main.c ****     for(int i=1; i<=5; i++){
 316               	.LM19:
 317 00a0 A817      		cp r26,r24
 318 00a2 B907      		cpc r27,r25
 319 00a4 01F4      		brne .L5
 320               	.LBE127:
 125:/Users/kevinKuwata1/Documents/xcode/ECEN1310Final/Mifare_SERVO/Mifare_SERVO/main.c ****             return -1;
 126:/Users/kevinKuwata1/Documents/xcode/ECEN1310Final/Mifare_SERVO/Mifare_SERVO/main.c ****     }
 127:/Users/kevinKuwata1/Documents/xcode/ECEN1310Final/Mifare_SERVO/Mifare_SERVO/main.c ****     return 0;
 322               	.LM20:
 323 00a6 80E0      		ldi r24,0
 324 00a8 90E0      		ldi r25,0
 325               	.LBB128:
 326 00aa 0895      		ret
 327               	.L6:
 125:/Users/kevinKuwata1/Documents/xcode/ECEN1310Final/Mifare_SERVO/Mifare_SERVO/main.c ****             return -1;
 329               	.LM21:
 330 00ac 8FEF      		ldi r24,lo8(-1)
 331 00ae 9FEF      		ldi r25,lo8(-1)
 332               	.LBE128:
 128:/Users/kevinKuwata1/Documents/xcode/ECEN1310Final/Mifare_SERVO/Mifare_SERVO/main.c **** }
 334               	.LM22:
 335 00b0 0895      		ret
 337               	.Lscope3:
 341               	.global	addTag
 343               	addTag:
 129:/Users/kevinKuwata1/Documents/xcode/ECEN1310Final/Mifare_SERVO/Mifare_SERVO/main.c **** 
 130:/Users/kevinKuwata1/Documents/xcode/ECEN1310Final/Mifare_SERVO/Mifare_SERVO/main.c **** unsigned int EEMEM tag[5]= {0,0,0,0,0};
 131:/Users/kevinKuwata1/Documents/xcode/ECEN1310Final/Mifare_SERVO/Mifare_SERVO/main.c **** //unsigned int EEMEM tag2[5]= {0,0,0,0,0};
 132:/Users/kevinKuwata1/Documents/xcode/ECEN1310Final/Mifare_SERVO/Mifare_SERVO/main.c **** unsigned int ram_tag[5]; //this is where we write the read tag to the stack will be str[] array.
 133:/Users/kevinKuwata1/Documents/xcode/ECEN1310Final/Mifare_SERVO/Mifare_SERVO/main.c **** 
 134:/Users/kevinKuwata1/Documents/xcode/ECEN1310Final/Mifare_SERVO/Mifare_SERVO/main.c **** //to do int tagNumber)
 135:/Users/kevinKuwata1/Documents/xcode/ECEN1310Final/Mifare_SERVO/Mifare_SERVO/main.c **** void addTag(int str[], int tagNumber){
 345               	.LM23:
 346               	.LFBB4:
 347 00b2 DF92      		push r13
 348 00b4 EF92      		push r14
 349 00b6 FF92      		push r15
 350 00b8 0F93      		push r16
 351 00ba 1F93      		push r17
 352 00bc CF93      		push r28
 353 00be DF93      		push r29
 354               	/* prologue: function */
 355               	/* frame size = 0 */
 356               	/* stack size = 7 */
 357               	.L__stack_usage = 7
 136:/Users/kevinKuwata1/Documents/xcode/ECEN1310Final/Mifare_SERVO/Mifare_SERVO/main.c ****     if(tagNumber ==1){
 359               	.LM24:
 360 00c0 6130      		cpi r22,1
 361 00c2 7105      		cpc r23,__zero_reg__
 362 00c4 01F4      		brne .L9
 363 00c6 8C01      		movw r16,r24
 364 00c8 0E5F      		subi r16,-2
 365 00ca 1F4F      		sbci r17,-1
 366 00cc 30E0      		ldi r19,lo8(tag1+1)
 367 00ce E32E      		mov r14,r19
 368 00d0 30E0      		ldi r19,hi8(tag1+1)
 369 00d2 F32E      		mov r15,r19
 370 00d4 EC01      		movw r28,r24
 371 00d6 2C96      		adiw r28,12
 372               	.LBB129:
 137:/Users/kevinKuwata1/Documents/xcode/ECEN1310Final/Mifare_SERVO/Mifare_SERVO/main.c ****         for(int i=1; i<=5; i++){
 138:/Users/kevinKuwata1/Documents/xcode/ECEN1310Final/Mifare_SERVO/Mifare_SERVO/main.c ****             write_eeprom_word(tag1[i], str[i]);
 139:/Users/kevinKuwata1/Documents/xcode/ECEN1310Final/Mifare_SERVO/Mifare_SERVO/main.c ****             PORTC = BV(ledG);
 374               	.LM25:
 375 00d8 44E0      		ldi r20,lo8(4)
 376 00da D42E      		mov r13,r20
 377               	.L10:
 138:/Users/kevinKuwata1/Documents/xcode/ECEN1310Final/Mifare_SERVO/Mifare_SERVO/main.c ****             PORTC = BV(ledG);
 379               	.LM26:
 380 00dc F801      		movw r30,r16
 381 00de 6191      		ld r22,Z+
 382 00e0 7191      		ld r23,Z+
 383 00e2 8F01      		movw r16,r30
 384 00e4 F701      		movw r30,r14
 385 00e6 8191      		ld r24,Z+
 386 00e8 7F01      		movw r14,r30
 387 00ea 90E0      		ldi r25,0
 388 00ec 0E94 0000 		call eeprom_write_word
 390               	.LM27:
 391 00f0 D8B8      		out 0x8,r13
 392               	.LBB130:
 393               	.LBB131:
 395               	.Ltext13:
 187:/usr/local/Cellar/avr-gcc/6.2.0/avr/include/util/delay.h **** 
 397               	.LM28:
 398 00f2 FFEF      		ldi r31,lo8(159999)
 399 00f4 20E7      		ldi r18,hi8(159999)
 400 00f6 82E0      		ldi r24,hlo8(159999)
 401 00f8 F150      	1:	subi r31,1
 402 00fa 2040      		sbci r18,0
 403 00fc 8040      		sbci r24,0
 404 00fe 01F4      		brne 1b
 405 0100 00C0      		rjmp .
 406 0102 0000      		nop
 407               	.LBE131:
 408               	.LBE130:
 410               	.Ltext14:
 137:/Users/kevinKuwata1/Documents/xcode/ECEN1310Final/Mifare_SERVO/Mifare_SERVO/main.c ****         for(int i=1; i<=5; i++){
 412               	.LM29:
 413 0104 C017      		cp r28,r16
 414 0106 D107      		cpc r29,r17
 415 0108 01F4      		brne .L10
 416               	.L8:
 417               	/* epilogue start */
 418               	.LBE129:
 140:/Users/kevinKuwata1/Documents/xcode/ECEN1310Final/Mifare_SERVO/Mifare_SERVO/main.c ****             _delay_ms(100);
 141:/Users/kevinKuwata1/Documents/xcode/ECEN1310Final/Mifare_SERVO/Mifare_SERVO/main.c ****         }
 142:/Users/kevinKuwata1/Documents/xcode/ECEN1310Final/Mifare_SERVO/Mifare_SERVO/main.c ****         tagNumber++;
 143:/Users/kevinKuwata1/Documents/xcode/ECEN1310Final/Mifare_SERVO/Mifare_SERVO/main.c ****     }
 144:/Users/kevinKuwata1/Documents/xcode/ECEN1310Final/Mifare_SERVO/Mifare_SERVO/main.c ****     else if(tagNumber ==2){
 145:/Users/kevinKuwata1/Documents/xcode/ECEN1310Final/Mifare_SERVO/Mifare_SERVO/main.c ****         for(int i=1; i<=5; i++){
 146:/Users/kevinKuwata1/Documents/xcode/ECEN1310Final/Mifare_SERVO/Mifare_SERVO/main.c ****             write_eeprom_word(tag2[i], str[i]);
 147:/Users/kevinKuwata1/Documents/xcode/ECEN1310Final/Mifare_SERVO/Mifare_SERVO/main.c ****         }
 148:/Users/kevinKuwata1/Documents/xcode/ECEN1310Final/Mifare_SERVO/Mifare_SERVO/main.c ****         tagNumber++; //incriment so we can keep track if we have room or not
 149:/Users/kevinKuwata1/Documents/xcode/ECEN1310Final/Mifare_SERVO/Mifare_SERVO/main.c ****     }
 150:/Users/kevinKuwata1/Documents/xcode/ECEN1310Final/Mifare_SERVO/Mifare_SERVO/main.c **** }
 420               	.LM30:
 421 010a DF91      		pop r29
 422 010c CF91      		pop r28
 423 010e 1F91      		pop r17
 424 0110 0F91      		pop r16
 425 0112 FF90      		pop r15
 426 0114 EF90      		pop r14
 427 0116 DF90      		pop r13
 428 0118 0895      		ret
 429               	.L9:
 144:/Users/kevinKuwata1/Documents/xcode/ECEN1310Final/Mifare_SERVO/Mifare_SERVO/main.c ****         for(int i=1; i<=5; i++){
 431               	.LM31:
 432 011a 6230      		cpi r22,2
 433 011c 7105      		cpc r23,__zero_reg__
 434 011e 01F4      		brne .L8
 435 0120 8C01      		movw r16,r24
 436 0122 0E5F      		subi r16,-2
 437 0124 1F4F      		sbci r17,-1
 438 0126 20E0      		ldi r18,lo8(tag2+1)
 439 0128 E22E      		mov r14,r18
 440 012a 20E0      		ldi r18,hi8(tag2+1)
 441 012c F22E      		mov r15,r18
 442 012e EC01      		movw r28,r24
 443 0130 2C96      		adiw r28,12
 444               	.L12:
 445               	.LBB132:
 146:/Users/kevinKuwata1/Documents/xcode/ECEN1310Final/Mifare_SERVO/Mifare_SERVO/main.c ****         }
 447               	.LM32:
 448 0132 F801      		movw r30,r16
 449 0134 6191      		ld r22,Z+
 450 0136 7191      		ld r23,Z+
 451 0138 8F01      		movw r16,r30
 452 013a F701      		movw r30,r14
 453 013c 8191      		ld r24,Z+
 454 013e 7F01      		movw r14,r30
 455 0140 90E0      		ldi r25,0
 456 0142 0E94 0000 		call eeprom_write_word
 145:/Users/kevinKuwata1/Documents/xcode/ECEN1310Final/Mifare_SERVO/Mifare_SERVO/main.c ****             write_eeprom_word(tag2[i], str[i]);
 458               	.LM33:
 459 0146 0C17      		cp r16,r28
 460 0148 1D07      		cpc r17,r29
 461 014a 01F4      		brne .L12
 462 014c 00C0      		rjmp .L8
 463               	.LBE132:
 465               	.Lscope4:
 468               	.global	validTag
 470               	validTag:
 151:/Users/kevinKuwata1/Documents/xcode/ECEN1310Final/Mifare_SERVO/Mifare_SERVO/main.c **** /*
 152:/Users/kevinKuwata1/Documents/xcode/ECEN1310Final/Mifare_SERVO/Mifare_SERVO/main.c ****  void deleteTag(int str[]){
 153:/Users/kevinKuwata1/Documents/xcode/ECEN1310Final/Mifare_SERVO/Mifare_SERVO/main.c ****  for(int i=0; i<=4; i++){
 154:/Users/kevinKuwata1/Documents/xcode/ECEN1310Final/Mifare_SERVO/Mifare_SERVO/main.c ****  if(str[i] == DELETE[i]){
 155:/Users/kevinKuwata1/Documents/xcode/ECEN1310Final/Mifare_SERVO/Mifare_SERVO/main.c ****  deleteNext =1;
 156:/Users/kevinKuwata1/Documents/xcode/ECEN1310Final/Mifare_SERVO/Mifare_SERVO/main.c ****  }
 157:/Users/kevinKuwata1/Documents/xcode/ECEN1310Final/Mifare_SERVO/Mifare_SERVO/main.c ****  else
 158:/Users/kevinKuwata1/Documents/xcode/ECEN1310Final/Mifare_SERVO/Mifare_SERVO/main.c ****  deleteNext = 0;
 159:/Users/kevinKuwata1/Documents/xcode/ECEN1310Final/Mifare_SERVO/Mifare_SERVO/main.c ****  }
 160:/Users/kevinKuwata1/Documents/xcode/ECEN1310Final/Mifare_SERVO/Mifare_SERVO/main.c ****  for(int i=0; i<=4; i++){
 161:/Users/kevinKuwata1/Documents/xcode/ECEN1310Final/Mifare_SERVO/Mifare_SERVO/main.c ****  if(str[i] != tag1[i] || str[i] != tag2[i]){
 162:/Users/kevinKuwata1/Documents/xcode/ECEN1310Final/Mifare_SERVO/Mifare_SERVO/main.c ****  return; //not a tag in memory
 163:/Users/kevinKuwata1/Documents/xcode/ECEN1310Final/Mifare_SERVO/Mifare_SERVO/main.c ****  }
 164:/Users/kevinKuwata1/Documents/xcode/ECEN1310Final/Mifare_SERVO/Mifare_SERVO/main.c ****  }
 165:/Users/kevinKuwata1/Documents/xcode/ECEN1310Final/Mifare_SERVO/Mifare_SERVO/main.c ****  else
 166:/Users/kevinKuwata1/Documents/xcode/ECEN1310Final/Mifare_SERVO/Mifare_SERVO/main.c ****  {
 167:/Users/kevinKuwata1/Documents/xcode/ECEN1310Final/Mifare_SERVO/Mifare_SERVO/main.c ****  //delete all tags;
 168:/Users/kevinKuwata1/Documents/xcode/ECEN1310Final/Mifare_SERVO/Mifare_SERVO/main.c ****  for(int i=0; i<=4; i++){
 169:/Users/kevinKuwata1/Documents/xcode/ECEN1310Final/Mifare_SERVO/Mifare_SERVO/main.c ****  write_eeprom_word(tag1[i], 0);
 170:/Users/kevinKuwata1/Documents/xcode/ECEN1310Final/Mifare_SERVO/Mifare_SERVO/main.c ****  write_eeprom_word(tag2[i], 0);
 171:/Users/kevinKuwata1/Documents/xcode/ECEN1310Final/Mifare_SERVO/Mifare_SERVO/main.c ****  }//end of delete for loop
 172:/Users/kevinKuwata1/Documents/xcode/ECEN1310Final/Mifare_SERVO/Mifare_SERVO/main.c ****  }
 173:/Users/kevinKuwata1/Documents/xcode/ECEN1310Final/Mifare_SERVO/Mifare_SERVO/main.c ****  loadTags(); //to ensure new eeprom is loaded
 174:/Users/kevinKuwata1/Documents/xcode/ECEN1310Final/Mifare_SERVO/Mifare_SERVO/main.c ****  
 175:/Users/kevinKuwata1/Documents/xcode/ECEN1310Final/Mifare_SERVO/Mifare_SERVO/main.c ****  }
 176:/Users/kevinKuwata1/Documents/xcode/ECEN1310Final/Mifare_SERVO/Mifare_SERVO/main.c ****  */
 177:/Users/kevinKuwata1/Documents/xcode/ECEN1310Final/Mifare_SERVO/Mifare_SERVO/main.c **** 
 178:/Users/kevinKuwata1/Documents/xcode/ECEN1310Final/Mifare_SERVO/Mifare_SERVO/main.c **** void validTag(int state ){
 472               	.LM34:
 473               	.LFBB5:
 474               	/* prologue: function */
 475               	/* frame size = 0 */
 476               	/* stack size = 0 */
 477               	.L__stack_usage = 0
 179:/Users/kevinKuwata1/Documents/xcode/ECEN1310Final/Mifare_SERVO/Mifare_SERVO/main.c ****     if(state == 1){
 479               	.LM35:
 480 014e 8130      		cpi r24,1
 481 0150 9105      		cpc r25,__zero_reg__
 482 0152 01F4      		brne .L16
 483               	.LBB141:
 484               	.LBB142:
 180:/Users/kevinKuwata1/Documents/xcode/ECEN1310Final/Mifare_SERVO/Mifare_SERVO/main.c ****         PORTC |= BV(ledG);
 486               	.LM36:
 487 0154 429A      		sbi 0x8,2
 488               	.LBB143:
 489               	.LBB144:
 491               	.Ltext15:
 187:/usr/local/Cellar/avr-gcc/6.2.0/avr/include/util/delay.h **** 
 493               	.LM37:
 494 0156 2FEF      		ldi r18,lo8(479999)
 495 0158 82E5      		ldi r24,hi8(479999)
 496 015a 97E0      		ldi r25,hlo8(479999)
 497 015c 2150      	1:	subi r18,1
 498 015e 8040      		sbci r24,0
 499 0160 9040      		sbci r25,0
 500 0162 01F4      		brne 1b
 501 0164 00C0      		rjmp .
 502 0166 0000      		nop
 503 0168 0895      		ret
 504               	.L16:
 505               	.LBE144:
 506               	.LBE143:
 507               	.LBE142:
 508               	.LBE141:
 510               	.Ltext16:
 181:/Users/kevinKuwata1/Documents/xcode/ECEN1310Final/Mifare_SERVO/Mifare_SERVO/main.c ****         _delay_ms(300);
 182:/Users/kevinKuwata1/Documents/xcode/ECEN1310Final/Mifare_SERVO/Mifare_SERVO/main.c ****         //PORTC ^= BV(ledG);
 183:/Users/kevinKuwata1/Documents/xcode/ECEN1310Final/Mifare_SERVO/Mifare_SERVO/main.c ****     }
 184:/Users/kevinKuwata1/Documents/xcode/ECEN1310Final/Mifare_SERVO/Mifare_SERVO/main.c ****     else if(state ==-1){
 512               	.LM38:
 513 016a 0196      		adiw r24,1
 514 016c 01F4      		brne .L15
 185:/Users/kevinKuwata1/Documents/xcode/ECEN1310Final/Mifare_SERVO/Mifare_SERVO/main.c ****         PORTC |= BV(ledR);
 516               	.LM39:
 517 016e 419A      		sbi 0x8,1
 518               	.LBB145:
 519               	.LBB146:
 521               	.Ltext17:
 187:/usr/local/Cellar/avr-gcc/6.2.0/avr/include/util/delay.h **** 
 523               	.LM40:
 524 0170 8FEF      		ldi r24,lo8(479999)
 525 0172 92E5      		ldi r25,hi8(479999)
 526 0174 27E0      		ldi r18,hlo8(479999)
 527 0176 8150      	1:	subi r24,1
 528 0178 9040      		sbci r25,0
 529 017a 2040      		sbci r18,0
 530 017c 01F4      		brne 1b
 531 017e 00C0      		rjmp .
 532 0180 0000      		nop
 533               	.LBE146:
 534               	.LBE145:
 536               	.Ltext18:
 186:/Users/kevinKuwata1/Documents/xcode/ECEN1310Final/Mifare_SERVO/Mifare_SERVO/main.c ****         _delay_ms(300);
 187:/Users/kevinKuwata1/Documents/xcode/ECEN1310Final/Mifare_SERVO/Mifare_SERVO/main.c ****         PORTC ^= BV(ledR);
 538               	.LM41:
 539 0182 88B1      		in r24,0x8
 540 0184 92E0      		ldi r25,lo8(2)
 541 0186 8927      		eor r24,r25
 542 0188 88B9      		out 0x8,r24
 543               	.L15:
 544 018a 0895      		ret
 546               	.Lscope5:
 548               	.global	open
 550               	open:
 188:/Users/kevinKuwata1/Documents/xcode/ECEN1310Final/Mifare_SERVO/Mifare_SERVO/main.c ****     }
 189:/Users/kevinKuwata1/Documents/xcode/ECEN1310Final/Mifare_SERVO/Mifare_SERVO/main.c ****     else
 190:/Users/kevinKuwata1/Documents/xcode/ECEN1310Final/Mifare_SERVO/Mifare_SERVO/main.c ****     {
 191:/Users/kevinKuwata1/Documents/xcode/ECEN1310Final/Mifare_SERVO/Mifare_SERVO/main.c ****      //   PORTC &= ~BV(ledG);
 192:/Users/kevinKuwata1/Documents/xcode/ECEN1310Final/Mifare_SERVO/Mifare_SERVO/main.c ****     }
 193:/Users/kevinKuwata1/Documents/xcode/ECEN1310Final/Mifare_SERVO/Mifare_SERVO/main.c ****     
 194:/Users/kevinKuwata1/Documents/xcode/ECEN1310Final/Mifare_SERVO/Mifare_SERVO/main.c **** }
 195:/Users/kevinKuwata1/Documents/xcode/ECEN1310Final/Mifare_SERVO/Mifare_SERVO/main.c **** 
 196:/Users/kevinKuwata1/Documents/xcode/ECEN1310Final/Mifare_SERVO/Mifare_SERVO/main.c **** int open(void){
 552               	.LM42:
 553               	.LFBB6:
 554               	/* prologue: function */
 555               	/* frame size = 0 */
 556               	/* stack size = 0 */
 557               	.L__stack_usage = 0
 558               	.LBB159:
 559               	.LBB160:
 560               	.LBB161:
 180:/Users/kevinKuwata1/Documents/xcode/ECEN1310Final/Mifare_SERVO/Mifare_SERVO/main.c ****         _delay_ms(300);
 562               	.LM43:
 563 018c 429A      		sbi 0x8,2
 564               	.LBB162:
 565               	.LBB163:
 567               	.Ltext19:
 187:/usr/local/Cellar/avr-gcc/6.2.0/avr/include/util/delay.h **** 
 569               	.LM44:
 570 018e 2FEF      		ldi r18,lo8(479999)
 571 0190 82E5      		ldi r24,hi8(479999)
 572 0192 97E0      		ldi r25,hlo8(479999)
 573 0194 2150      	1:	subi r18,1
 574 0196 8040      		sbci r24,0
 575 0198 9040      		sbci r25,0
 576 019a 01F4      		brne 1b
 577 019c 00C0      		rjmp .
 578 019e 0000      		nop
 579               	.LBE163:
 580               	.LBE162:
 581               	.LBE161:
 582               	.LBE160:
 583               	.LBE159:
 585               	.Ltext20:
 197:/Users/kevinKuwata1/Documents/xcode/ECEN1310Final/Mifare_SERVO/Mifare_SERVO/main.c ****     
 198:/Users/kevinKuwata1/Documents/xcode/ECEN1310Final/Mifare_SERVO/Mifare_SERVO/main.c ****    validTag(1);
 199:/Users/kevinKuwata1/Documents/xcode/ECEN1310Final/Mifare_SERVO/Mifare_SERVO/main.c ****     PORTC = (BV(5));
 587               	.LM45:
 588 01a0 90E2      		ldi r25,lo8(32)
 589 01a2 98B9      		out 0x8,r25
 590               	.LBB164:
 591               	.LBB165:
 593               	.Ltext21:
 595               	.LM46:
 596 01a4 EFE9      		ldi r30,lo8(3999)
 597 01a6 FFE0      		ldi r31,hi8(3999)
 598 01a8 3197      	1:	sbiw r30,1
 599 01aa 01F4      		brne 1b
 600 01ac 00C0      		rjmp .
 601 01ae 0000      		nop
 602               	.LBE165:
 603               	.LBE164:
 605               	.Ltext22:
 200:/Users/kevinKuwata1/Documents/xcode/ECEN1310Final/Mifare_SERVO/Mifare_SERVO/main.c ****     _delay_us(2000);
 201:/Users/kevinKuwata1/Documents/xcode/ECEN1310Final/Mifare_SERVO/Mifare_SERVO/main.c ****     PORTC  ^=BV(5);
 607               	.LM47:
 608 01b0 88B1      		in r24,0x8
 609 01b2 8927      		eor r24,r25
 610 01b4 88B9      		out 0x8,r24
 611               	.LBB166:
 612               	.LBB167:
 614               	.Ltext23:
 616               	.LM48:
 617 01b6 8FE9      		ldi r24,lo8(-29537)
 618 01b8 9CE8      		ldi r25,hi8(-29537)
 619 01ba 0197      	1:	sbiw r24,1
 620 01bc 01F4      		brne 1b
 621 01be 00C0      		rjmp .
 622 01c0 0000      		nop
 623               	.LBE167:
 624               	.LBE166:
 626               	.Ltext24:
 202:/Users/kevinKuwata1/Documents/xcode/ECEN1310Final/Mifare_SERVO/Mifare_SERVO/main.c ****     _delay_us(18000);
 203:/Users/kevinKuwata1/Documents/xcode/ECEN1310Final/Mifare_SERVO/Mifare_SERVO/main.c ****     
 204:/Users/kevinKuwata1/Documents/xcode/ECEN1310Final/Mifare_SERVO/Mifare_SERVO/main.c ****     return 1;
 205:/Users/kevinKuwata1/Documents/xcode/ECEN1310Final/Mifare_SERVO/Mifare_SERVO/main.c **** }
 628               	.LM49:
 629 01c2 81E0      		ldi r24,lo8(1)
 630 01c4 90E0      		ldi r25,0
 631 01c6 0895      		ret
 633               	.Lscope6:
 635               	.global	close
 637               	close:
 206:/Users/kevinKuwata1/Documents/xcode/ECEN1310Final/Mifare_SERVO/Mifare_SERVO/main.c **** 
 207:/Users/kevinKuwata1/Documents/xcode/ECEN1310Final/Mifare_SERVO/Mifare_SERVO/main.c **** int close(void){
 639               	.LM50:
 640               	.LFBB7:
 641               	/* prologue: function */
 642               	/* frame size = 0 */
 643               	/* stack size = 0 */
 644               	.L__stack_usage = 0
 208:/Users/kevinKuwata1/Documents/xcode/ECEN1310Final/Mifare_SERVO/Mifare_SERVO/main.c ****     //ToDo: need to update this
 209:/Users/kevinKuwata1/Documents/xcode/ECEN1310Final/Mifare_SERVO/Mifare_SERVO/main.c ****     //close sequence
 210:/Users/kevinKuwata1/Documents/xcode/ECEN1310Final/Mifare_SERVO/Mifare_SERVO/main.c ****     PORTC = (BV(5));
 646               	.LM51:
 647 01c8 90E2      		ldi r25,lo8(32)
 648 01ca 98B9      		out 0x8,r25
 649               	.LBB168:
 650               	.LBB169:
 652               	.Ltext25:
 654               	.LM52:
 655 01cc EFEC      		ldi r30,lo8(1999)
 656 01ce F7E0      		ldi r31,hi8(1999)
 657 01d0 3197      	1:	sbiw r30,1
 658 01d2 01F4      		brne 1b
 659 01d4 00C0      		rjmp .
 660 01d6 0000      		nop
 661               	.LBE169:
 662               	.LBE168:
 664               	.Ltext26:
 211:/Users/kevinKuwata1/Documents/xcode/ECEN1310Final/Mifare_SERVO/Mifare_SERVO/main.c ****     _delay_us(1000);
 212:/Users/kevinKuwata1/Documents/xcode/ECEN1310Final/Mifare_SERVO/Mifare_SERVO/main.c ****     PORTC   ^=BV(5);
 666               	.LM53:
 667 01d8 88B1      		in r24,0x8
 668 01da 8927      		eor r24,r25
 669 01dc 88B9      		out 0x8,r24
 670               	.LBB170:
 671               	.LBB171:
 673               	.Ltext27:
 675               	.LM54:
 676 01de 8FE6      		ldi r24,lo8(-27537)
 677 01e0 94E9      		ldi r25,hi8(-27537)
 678 01e2 0197      	1:	sbiw r24,1
 679 01e4 01F4      		brne 1b
 680 01e6 00C0      		rjmp .
 681 01e8 0000      		nop
 682               	.LBE171:
 683               	.LBE170:
 685               	.Ltext28:
 213:/Users/kevinKuwata1/Documents/xcode/ECEN1310Final/Mifare_SERVO/Mifare_SERVO/main.c ****     _delay_us(19000);
 214:/Users/kevinKuwata1/Documents/xcode/ECEN1310Final/Mifare_SERVO/Mifare_SERVO/main.c **** //    validTag(0);
 215:/Users/kevinKuwata1/Documents/xcode/ECEN1310Final/Mifare_SERVO/Mifare_SERVO/main.c **** 
 216:/Users/kevinKuwata1/Documents/xcode/ECEN1310Final/Mifare_SERVO/Mifare_SERVO/main.c ****     return 1;
 217:/Users/kevinKuwata1/Documents/xcode/ECEN1310Final/Mifare_SERVO/Mifare_SERVO/main.c **** }
 687               	.LM55:
 688 01ea 81E0      		ldi r24,lo8(1)
 689 01ec 90E0      		ldi r25,0
 690 01ee 0895      		ret
 692               	.Lscope7:
 694               	.global	initButton
 696               	initButton:
 218:/Users/kevinKuwata1/Documents/xcode/ECEN1310Final/Mifare_SERVO/Mifare_SERVO/main.c **** /* === === === END SERVO SETUP === === === */
 219:/Users/kevinKuwata1/Documents/xcode/ECEN1310Final/Mifare_SERVO/Mifare_SERVO/main.c **** 
 220:/Users/kevinKuwata1/Documents/xcode/ECEN1310Final/Mifare_SERVO/Mifare_SERVO/main.c **** 
 221:/Users/kevinKuwata1/Documents/xcode/ECEN1310Final/Mifare_SERVO/Mifare_SERVO/main.c **** void initButton(void){
 698               	.LM56:
 699               	.LFBB8:
 700               	/* prologue: function */
 701               	/* frame size = 0 */
 702               	/* stack size = 0 */
 703               	.L__stack_usage = 0
 222:/Users/kevinKuwata1/Documents/xcode/ECEN1310Final/Mifare_SERVO/Mifare_SERVO/main.c ****     // uint8_t button = 3;
 223:/Users/kevinKuwata1/Documents/xcode/ECEN1310Final/Mifare_SERVO/Mifare_SERVO/main.c ****     //uint8_t ledG = 2;
 224:/Users/kevinKuwata1/Documents/xcode/ECEN1310Final/Mifare_SERVO/Mifare_SERVO/main.c ****     DDRC ^= BV(button); //set as input
 705               	.LM57:
 706 01f0 97B1      		in r25,0x7
 707 01f2 21E0      		ldi r18,lo8(1)
 708 01f4 9227      		eor r25,r18
 709 01f6 97B9      		out 0x7,r25
 225:/Users/kevinKuwata1/Documents/xcode/ECEN1310Final/Mifare_SERVO/Mifare_SERVO/main.c ****     DDRC |= BV(ledG); //set output
 711               	.LM58:
 712 01f8 3A9A      		sbi 0x7,2
 226:/Users/kevinKuwata1/Documents/xcode/ECEN1310Final/Mifare_SERVO/Mifare_SERVO/main.c ****     
 227:/Users/kevinKuwata1/Documents/xcode/ECEN1310Final/Mifare_SERVO/Mifare_SERVO/main.c ****     PORTC ^= BV(button); // set low
 714               	.LM59:
 715 01fa 88B1      		in r24,0x8
 716 01fc 8227      		eor r24,r18
 717 01fe 88B9      		out 0x8,r24
 718 0200 0895      		ret
 720               	.Lscope8:
 721               		.section	.rodata.str1.1,"aMS",@progbits,1
 722               	.LC0:
 723 0000 6275 7474 		.string	"button press"
 723      6F6E 2070 
 723      7265 7373 
 723      00
 724               		.text
 726               	.global	buttonRead
 728               	buttonRead:
 228:/Users/kevinKuwata1/Documents/xcode/ECEN1310Final/Mifare_SERVO/Mifare_SERVO/main.c **** }
 229:/Users/kevinKuwata1/Documents/xcode/ECEN1310Final/Mifare_SERVO/Mifare_SERVO/main.c **** 
 230:/Users/kevinKuwata1/Documents/xcode/ECEN1310Final/Mifare_SERVO/Mifare_SERVO/main.c **** int buttonRead(void){
 730               	.LM60:
 731               	.LFBB9:
 732               	/* prologue: function */
 733               	/* frame size = 0 */
 734               	/* stack size = 0 */
 735               	.L__stack_usage = 0
 231:/Users/kevinKuwata1/Documents/xcode/ECEN1310Final/Mifare_SERVO/Mifare_SERVO/main.c ****     if(bit_is_clear(PINC, button)){
 737               	.LM61:
 738 0202 3099      		sbic 0x6,0
 739 0204 00C0      		rjmp .L23
 740               	.LBB180:
 741               	.LBB181:
 232:/Users/kevinKuwata1/Documents/xcode/ECEN1310Final/Mifare_SERVO/Mifare_SERVO/main.c ****         LCDClear();
 743               	.LM62:
 744 0206 60E0      		ldi r22,0
 745 0208 81E0      		ldi r24,lo8(1)
 746 020a 0E94 0000 		call LCDByte
 747               	.LBB182:
 748               	.LBB183:
 750               	.Ltext29:
 187:/usr/local/Cellar/avr-gcc/6.2.0/avr/include/util/delay.h **** 
 752               	.LM63:
 753 020e 2FEF      		ldi r18,lo8(63999)
 754 0210 89EF      		ldi r24,hi8(63999)
 755 0212 90E0      		ldi r25,hlo8(63999)
 756 0214 2150      	1:	subi r18,1
 757 0216 8040      		sbci r24,0
 758 0218 9040      		sbci r25,0
 759 021a 01F4      		brne 1b
 760 021c 00C0      		rjmp .
 761 021e 0000      		nop
 762               	.LBE183:
 763               	.LBE182:
 765               	.Ltext30:
 233:/Users/kevinKuwata1/Documents/xcode/ECEN1310Final/Mifare_SERVO/Mifare_SERVO/main.c ****         _delay_ms(40);
 234:/Users/kevinKuwata1/Documents/xcode/ECEN1310Final/Mifare_SERVO/Mifare_SERVO/main.c ****         LCDWriteString("button press");
 767               	.LM64:
 768 0220 80E0      		ldi r24,lo8(.LC0)
 769 0222 90E0      		ldi r25,hi8(.LC0)
 770 0224 0E94 0000 		call LCDWriteString
 235:/Users/kevinKuwata1/Documents/xcode/ECEN1310Final/Mifare_SERVO/Mifare_SERVO/main.c ****         open();
 772               	.LM65:
 773 0228 0E94 0000 		call open
 774               	.LBB184:
 775               	.LBB185:
 777               	.Ltext31:
 187:/usr/local/Cellar/avr-gcc/6.2.0/avr/include/util/delay.h **** 
 779               	.LM66:
 780 022c 2FEF      		ldi r18,lo8(799999)
 781 022e 84E3      		ldi r24,hi8(799999)
 782 0230 9CE0      		ldi r25,hlo8(799999)
 783 0232 2150      	1:	subi r18,1
 784 0234 8040      		sbci r24,0
 785 0236 9040      		sbci r25,0
 786 0238 01F4      		brne 1b
 787 023a 00C0      		rjmp .
 788 023c 0000      		nop
 789               	.LBE185:
 790               	.LBE184:
 792               	.Ltext32:
 236:/Users/kevinKuwata1/Documents/xcode/ECEN1310Final/Mifare_SERVO/Mifare_SERVO/main.c ****         _delay_ms(500);
 237:/Users/kevinKuwata1/Documents/xcode/ECEN1310Final/Mifare_SERVO/Mifare_SERVO/main.c ****         close();
 794               	.LM67:
 795 023e 0E94 0000 		call close
 796               	.LBB186:
 797               	.LBB187:
 799               	.Ltext33:
 187:/usr/local/Cellar/avr-gcc/6.2.0/avr/include/util/delay.h **** 
 801               	.LM68:
 802 0242 2FEF      		ldi r18,lo8(1599999)
 803 0244 89E6      		ldi r24,hi8(1599999)
 804 0246 98E1      		ldi r25,hlo8(1599999)
 805 0248 2150      	1:	subi r18,1
 806 024a 8040      		sbci r24,0
 807 024c 9040      		sbci r25,0
 808 024e 01F4      		brne 1b
 809 0250 00C0      		rjmp .
 810 0252 0000      		nop
 811               	.LBE187:
 812               	.LBE186:
 814               	.Ltext34:
 238:/Users/kevinKuwata1/Documents/xcode/ECEN1310Final/Mifare_SERVO/Mifare_SERVO/main.c ****         _delay_ms(1000);
 239:/Users/kevinKuwata1/Documents/xcode/ECEN1310Final/Mifare_SERVO/Mifare_SERVO/main.c ****         LCDClear();
 816               	.LM69:
 817 0254 60E0      		ldi r22,0
 818 0256 81E0      		ldi r24,lo8(1)
 819 0258 0E94 0000 		call LCDByte
 820 025c 81E0      		ldi r24,lo8(1)
 821 025e 90E0      		ldi r25,0
 822 0260 0895      		ret
 823               	.L23:
 824               	.LBE181:
 825               	.LBE180:
 240:/Users/kevinKuwata1/Documents/xcode/ECEN1310Final/Mifare_SERVO/Mifare_SERVO/main.c ****         return 1;
 241:/Users/kevinKuwata1/Documents/xcode/ECEN1310Final/Mifare_SERVO/Mifare_SERVO/main.c ****     }
 242:/Users/kevinKuwata1/Documents/xcode/ECEN1310Final/Mifare_SERVO/Mifare_SERVO/main.c ****     return 0;
 827               	.LM70:
 828 0262 80E0      		ldi r24,0
 829 0264 90E0      		ldi r25,0
 243:/Users/kevinKuwata1/Documents/xcode/ECEN1310Final/Mifare_SERVO/Mifare_SERVO/main.c **** }
 831               	.LM71:
 832 0266 0895      		ret
 834               	.Lscope9:
 836               	.global	loadTags
 838               	loadTags:
 244:/Users/kevinKuwata1/Documents/xcode/ECEN1310Final/Mifare_SERVO/Mifare_SERVO/main.c **** 
 245:/Users/kevinKuwata1/Documents/xcode/ECEN1310Final/Mifare_SERVO/Mifare_SERVO/main.c **** void loadTags(void){
 840               	.LM72:
 841               	.LFBB10:
 842 0268 CF92      		push r12
 843 026a DF92      		push r13
 844 026c EF92      		push r14
 845 026e FF92      		push r15
 846 0270 0F93      		push r16
 847 0272 1F93      		push r17
 848 0274 CF93      		push r28
 849 0276 DF93      		push r29
 850               	/* prologue: function */
 851               	/* frame size = 0 */
 852               	/* stack size = 8 */
 853               	.L__stack_usage = 8
 854 0278 C0E0      		ldi r28,lo8(tag1)
 855 027a D0E0      		ldi r29,hi8(tag1)
 856 027c 80E0      		ldi r24,lo8(ram_tag1)
 857 027e C82E      		mov r12,r24
 858 0280 80E0      		ldi r24,hi8(ram_tag1)
 859 0282 D82E      		mov r13,r24
 860 0284 90E0      		ldi r25,lo8(tag2)
 861 0286 E92E      		mov r14,r25
 862 0288 90E0      		ldi r25,hi8(tag2)
 863 028a F92E      		mov r15,r25
 864 028c 00E0      		ldi r16,lo8(ram_tag2)
 865 028e 10E0      		ldi r17,hi8(ram_tag2)
 866               	.L25:
 867               	.LBB188:
 246:/Users/kevinKuwata1/Documents/xcode/ECEN1310Final/Mifare_SERVO/Mifare_SERVO/main.c ****     for(int i=0; i<5; i++){
 247:/Users/kevinKuwata1/Documents/xcode/ECEN1310Final/Mifare_SERVO/Mifare_SERVO/main.c ****         ram_tag1[i] = read_eeprom_word(tag1[i]);
 869               	.LM73:
 870 0290 8991      		ld r24,Y+
 871 0292 90E0      		ldi r25,0
 872 0294 0E94 0000 		call eeprom_read_word
 873 0298 F601      		movw r30,r12
 874 029a 8193      		st Z+,r24
 875 029c 6F01      		movw r12,r30
 248:/Users/kevinKuwata1/Documents/xcode/ECEN1310Final/Mifare_SERVO/Mifare_SERVO/main.c ****         ram_tag2[i] = read_eeprom_word(tag2[i]);
 877               	.LM74:
 878 029e F701      		movw r30,r14
 879 02a0 8191      		ld r24,Z+
 880 02a2 7F01      		movw r14,r30
 881 02a4 90E0      		ldi r25,0
 882 02a6 0E94 0000 		call eeprom_read_word
 883 02aa F801      		movw r30,r16
 884 02ac 8193      		st Z+,r24
 885 02ae 8F01      		movw r16,r30
 246:/Users/kevinKuwata1/Documents/xcode/ECEN1310Final/Mifare_SERVO/Mifare_SERVO/main.c ****     for(int i=0; i<5; i++){
 887               	.LM75:
 888 02b0 F0E0      		ldi r31,hi8(tag1+5)
 889 02b2 C030      		cpi r28,lo8(tag1+5)
 890 02b4 DF07      		cpc r29,r31
 891 02b6 01F4      		brne .L25
 892               	/* epilogue start */
 893               	.LBE188:
 249:/Users/kevinKuwata1/Documents/xcode/ECEN1310Final/Mifare_SERVO/Mifare_SERVO/main.c ****     }
 250:/Users/kevinKuwata1/Documents/xcode/ECEN1310Final/Mifare_SERVO/Mifare_SERVO/main.c **** }
 895               	.LM76:
 896 02b8 DF91      		pop r29
 897 02ba CF91      		pop r28
 898 02bc 1F91      		pop r17
 899 02be 0F91      		pop r16
 900 02c0 FF90      		pop r15
 901 02c2 EF90      		pop r14
 902 02c4 DF90      		pop r13
 903 02c6 CF90      		pop r12
 904 02c8 0895      		ret
 906               	.Lscope10:
 907               		.section	.rodata.str1.1
 908               	.LC1:
 909 000d 4543 454E 		.string	"ECEN1310 RFID"
 909      3133 3130 
 909      2052 4649 
 909      4400 
 910               	.LC2:
 911 001b 4B65 7669 		.string	"Kevin Kuwata"
 911      6E20 4B75 
 911      7761 7461 
 911      00
 912               	.LC3:
 913 0028 5461 6720 		.string	"Tag Reader"
 913      5265 6164 
 913      6572 00
 914               	.LC4:
 915 0033 6465 6C65 		.string	"delete tag acivated"
 915      7465 2074 
 915      6167 2061 
 915      6369 7661 
 915      7465 6400 
 916               	.LC5:
 917 0047 5363 616E 		.string	"Scan again to "
 917      2061 6761 
 917      696E 2074 
 917      6F20 00
 918               	.LC6:
 919 0056 6465 6C65 		.string	"delete all tags."
 919      7465 2061 
 919      6C6C 2074 
 919      6167 732E 
 919      00
 920               	.LC7:
 921 0067 5265 6D6F 		.string	"Removing Tags"
 921      7669 6E67 
 921      2054 6167 
 921      7300 
 922               	.LC8:
 923 0075 5461 6773 		.string	"Tags Erased"
 923      2045 7261 
 923      7365 6400 
 924               	.LC9:
 925 0081 5363 616E 		.string	"Scan tag to "
 925      2074 6167 
 925      2074 6F20 
 925      00
 926               	.LC10:
 927 008e 6265 2061 		.string	"be added."
 927      6464 6564 
 927      2E00 
 928               	.LC11:
 929 0098 4545 5052 		.string	"EEPROM Tag Slots"
 929      4F4D 2054 
 929      6167 2053 
 929      6C6F 7473 
 929      00
 930               	.LC12:
 931 00a9 4675 6C6C 		.string	"Full"
 931      00
 932               	.LC13:
 933 00ae 4572 726F 		.string	"Error 3:"
 933      7220 333A 
 933      00
 934               	.LC14:
 935 00b7 5461 6720 		.string	"Tag already"
 935      616C 7265 
 935      6164 7900 
 936               	.LC15:
 937 00c3 7374 6F72 		.string	"stored"
 937      6564 00
 938               	.LC16:
 939 00ca 4572 726F 		.string	"Error 1:"
 939      7220 313A 
 939      00
 940               	.LC17:
 941 00d3 6174 7465 		.string	"attempting to"
 941      6D70 7469 
 941      6E67 2074 
 941      6F00 
 942               	.LC18:
 943 00e1 6164 6420 		.string	"add a protected"
 943      6120 7072 
 943      6F74 6563 
 943      7465 6400 
 944               	.LC19:
 945 00f1 5246 4944 		.string	"RFID tag.       "
 945      2074 6167 
 945      2E20 2020 
 945      2020 2020 
 945      00
 946               	.LC20:
 947 0102 4144 4449 		.string	"ADDING CARD 1"
 947      4E47 2043 
 947      4152 4420 
 947      3100 
 948               	.LC21:
 949 0110 4144 4449 		.string	"ADDING CARD 2"
 949      4E47 2043 
 949      4152 4420 
 949      3200 
 950               	.LC22:
 951 011e 4572 726F 		.string	"Error"
 951      7200 
 952               	.LC23:
 953 0124 4D41 5443 		.string	"MATCH"
 953      4800 
 954               	.LC24:
 955 012a 4163 6365 		.string	"Access Granted"
 955      7373 2047 
 955      7261 6E74 
 955      6564 00
 956               	.LC25:
 957 0139 4163 6365 		.string	"Access Denied"
 957      7373 2044 
 957      656E 6965 
 957      6400 
 958               	.LC26:
 959 0147 5072 6573 		.string	"Present Tag"
 959      656E 7420 
 959      5461 6700 
 960               		.section	.text.startup,"ax",@progbits
 962               	.global	main
 964               	main:
 251:/Users/kevinKuwata1/Documents/xcode/ECEN1310Final/Mifare_SERVO/Mifare_SERVO/main.c **** 
 252:/Users/kevinKuwata1/Documents/xcode/ECEN1310Final/Mifare_SERVO/Mifare_SERVO/main.c **** 
 253:/Users/kevinKuwata1/Documents/xcode/ECEN1310Final/Mifare_SERVO/Mifare_SERVO/main.c **** 
 254:/Users/kevinKuwata1/Documents/xcode/ECEN1310Final/Mifare_SERVO/Mifare_SERVO/main.c **** 
 255:/Users/kevinKuwata1/Documents/xcode/ECEN1310Final/Mifare_SERVO/Mifare_SERVO/main.c **** 
 256:/Users/kevinKuwata1/Documents/xcode/ECEN1310Final/Mifare_SERVO/Mifare_SERVO/main.c **** int main(void)
 257:/Users/kevinKuwata1/Documents/xcode/ECEN1310Final/Mifare_SERVO/Mifare_SERVO/main.c **** {
 966               	.LM77:
 967               	.LFBB11:
 968 0000 CF93      		push r28
 969 0002 DF93      		push r29
 970 0004 CDB7      		in r28,__SP_L__
 971 0006 DEB7      		in r29,__SP_H__
 972 0008 6A97      		sbiw r28,26
 973 000a 0FB6      		in __tmp_reg__,__SREG__
 974 000c F894      		cli
 975 000e DEBF      		out __SP_H__,r29
 976 0010 0FBE      		out __SREG__,__tmp_reg__
 977 0012 CDBF      		out __SP_L__,r28
 978               	/* prologue: function */
 979               	/* frame size = 26 */
 980               	/* stack size = 28 */
 981               	.L__stack_usage = 28
 258:/Users/kevinKuwata1/Documents/xcode/ECEN1310Final/Mifare_SERVO/Mifare_SERVO/main.c ****     loadTags(); //load any tags stored in eeprom.
 983               	.LM78:
 984 0014 0E94 0000 		call loadTags
 259:/Users/kevinKuwata1/Documents/xcode/ECEN1310Final/Mifare_SERVO/Mifare_SERVO/main.c ****     initServo(); //make servo an output at pin 5
 986               	.LM79:
 987 0018 0E94 0000 		call initServo
 988               	.LBB189:
 989               	.LBB190:
 991               	.Ltext35:
 187:/usr/local/Cellar/avr-gcc/6.2.0/avr/include/util/delay.h **** 
 993               	.LM80:
 994 001c 2FE7      		ldi r18,lo8(79999)
 995 001e 88E3      		ldi r24,hi8(79999)
 996 0020 91E0      		ldi r25,hlo8(79999)
 997 0022 2150      	1:	subi r18,1
 998 0024 8040      		sbci r24,0
 999 0026 9040      		sbci r25,0
 1000 0028 01F4      		brne 1b
 1001 002a 00C0      		rjmp .
 1002 002c 0000      		nop
 1003               	.LBE190:
 1004               	.LBE189:
 1006               	.Ltext36:
 260:/Users/kevinKuwata1/Documents/xcode/ECEN1310Final/Mifare_SERVO/Mifare_SERVO/main.c ****     
 261:/Users/kevinKuwata1/Documents/xcode/ECEN1310Final/Mifare_SERVO/Mifare_SERVO/main.c ****     uint8_t byte;
 262:/Users/kevinKuwata1/Documents/xcode/ECEN1310Final/Mifare_SERVO/Mifare_SERVO/main.c ****     uint8_t str[MAX_LEN];
 263:/Users/kevinKuwata1/Documents/xcode/ECEN1310Final/Mifare_SERVO/Mifare_SERVO/main.c ****     _delay_ms(50);
 264:/Users/kevinKuwata1/Documents/xcode/ECEN1310Final/Mifare_SERVO/Mifare_SERVO/main.c ****     LCDInit(LS_BLINK);
 1008               	.LM81:
 1009 002e 81E0      		ldi r24,lo8(1)
 1010 0030 0E94 0000 		call LCDInit
 265:/Users/kevinKuwata1/Documents/xcode/ECEN1310Final/Mifare_SERVO/Mifare_SERVO/main.c ****     LCDWriteStringXY(0,0,"ECEN1310 RFID");
 1012               	.LM82:
 1013 0034 60E0      		ldi r22,0
 1014 0036 80E0      		ldi r24,0
 1015 0038 0E94 0000 		call LCDGotoXY
 1016 003c 80E0      		ldi r24,lo8(.LC1)
 1017 003e 90E0      		ldi r25,hi8(.LC1)
 1018 0040 0E94 0000 		call LCDWriteString
 266:/Users/kevinKuwata1/Documents/xcode/ECEN1310Final/Mifare_SERVO/Mifare_SERVO/main.c ****     LCDWriteStringXY(0,1, "Kevin Kuwata");
 1020               	.LM83:
 1021 0044 61E0      		ldi r22,lo8(1)
 1022 0046 80E0      		ldi r24,0
 1023 0048 0E94 0000 		call LCDGotoXY
 1024 004c 80E0      		ldi r24,lo8(.LC2)
 1025 004e 90E0      		ldi r25,hi8(.LC2)
 1026 0050 0E94 0000 		call LCDWriteString
 1027               	.LBB191:
 1028               	.LBB192:
 1030               	.Ltext37:
 187:/usr/local/Cellar/avr-gcc/6.2.0/avr/include/util/delay.h **** 
 1032               	.LM84:
 1033 0054 EFEF      		ldi r30,lo8(3199999)
 1034 0056 F3ED      		ldi r31,hi8(3199999)
 1035 0058 20E3      		ldi r18,hlo8(3199999)
 1036 005a E150      	1:	subi r30,1
 1037 005c F040      		sbci r31,0
 1038 005e 2040      		sbci r18,0
 1039 0060 01F4      		brne 1b
 1040 0062 00C0      		rjmp .
 1041 0064 0000      		nop
 1042               	.LBE192:
 1043               	.LBE191:
 1045               	.Ltext38:
 267:/Users/kevinKuwata1/Documents/xcode/ECEN1310Final/Mifare_SERVO/Mifare_SERVO/main.c **** 
 268:/Users/kevinKuwata1/Documents/xcode/ECEN1310Final/Mifare_SERVO/Mifare_SERVO/main.c ****     _delay_ms(2000);
 269:/Users/kevinKuwata1/Documents/xcode/ECEN1310Final/Mifare_SERVO/Mifare_SERVO/main.c ****     LCDClear();
 1047               	.LM85:
 1048 0066 60E0      		ldi r22,0
 1049 0068 81E0      		ldi r24,lo8(1)
 1050 006a 0E94 0000 		call LCDByte
 270:/Users/kevinKuwata1/Documents/xcode/ECEN1310Final/Mifare_SERVO/Mifare_SERVO/main.c ****     LCDWriteStringXY(0,0, "Tag Reader");
 1052               	.LM86:
 1053 006e 60E0      		ldi r22,0
 1054 0070 80E0      		ldi r24,0
 1055 0072 0E94 0000 		call LCDGotoXY
 1056 0076 80E0      		ldi r24,lo8(.LC3)
 1057 0078 90E0      		ldi r25,hi8(.LC3)
 1058 007a 0E94 0000 		call LCDWriteString
 271:/Users/kevinKuwata1/Documents/xcode/ECEN1310Final/Mifare_SERVO/Mifare_SERVO/main.c ****     LCDWriteStringXY(0,1, "Kevin Kuwata");
 1060               	.LM87:
 1061 007e 61E0      		ldi r22,lo8(1)
 1062 0080 80E0      		ldi r24,0
 1063 0082 0E94 0000 		call LCDGotoXY
 1064 0086 80E0      		ldi r24,lo8(.LC2)
 1065 0088 90E0      		ldi r25,hi8(.LC2)
 1066 008a 0E94 0000 		call LCDWriteString
 272:/Users/kevinKuwata1/Documents/xcode/ECEN1310Final/Mifare_SERVO/Mifare_SERVO/main.c **** 
 273:/Users/kevinKuwata1/Documents/xcode/ECEN1310Final/Mifare_SERVO/Mifare_SERVO/main.c ****     initLED(); //very strange init of led needs to be after load tags and servo!
 1068               	.LM88:
 1069 008e 0E94 0000 		call initLED
 274:/Users/kevinKuwata1/Documents/xcode/ECEN1310Final/Mifare_SERVO/Mifare_SERVO/main.c **** 
 275:/Users/kevinKuwata1/Documents/xcode/ECEN1310Final/Mifare_SERVO/Mifare_SERVO/main.c ****     
 276:/Users/kevinKuwata1/Documents/xcode/ECEN1310Final/Mifare_SERVO/Mifare_SERVO/main.c ****     spi_init(); //start communication for rfid
 1071               	.LM89:
 1072 0092 0E94 0000 		call spi_init
 1073               	.LBB193:
 1074               	.LBB194:
 1076               	.Ltext39:
 187:/usr/local/Cellar/avr-gcc/6.2.0/avr/include/util/delay.h **** 
 1078               	.LM90:
 1079 0096 8FEF      		ldi r24,lo8(1599999)
 1080 0098 99E6      		ldi r25,hi8(1599999)
 1081 009a E8E1      		ldi r30,hlo8(1599999)
 1082 009c 8150      	1:	subi r24,1
 1083 009e 9040      		sbci r25,0
 1084 00a0 E040      		sbci r30,0
 1085 00a2 01F4      		brne 1b
 1086 00a4 00C0      		rjmp .
 1087 00a6 0000      		nop
 1088               	.LBE194:
 1089               	.LBE193:
 1091               	.Ltext40:
 277:/Users/kevinKuwata1/Documents/xcode/ECEN1310Final/Mifare_SERVO/Mifare_SERVO/main.c ****     _delay_ms(1000);
 278:/Users/kevinKuwata1/Documents/xcode/ECEN1310Final/Mifare_SERVO/Mifare_SERVO/main.c ****     LCDClear();
 1093               	.LM91:
 1094 00a8 60E0      		ldi r22,0
 1095 00aa 81E0      		ldi r24,lo8(1)
 1096 00ac 0E94 0000 		call LCDByte
 279:/Users/kevinKuwata1/Documents/xcode/ECEN1310Final/Mifare_SERVO/Mifare_SERVO/main.c ****     
 280:/Users/kevinKuwata1/Documents/xcode/ECEN1310Final/Mifare_SERVO/Mifare_SERVO/main.c ****     open();  //for testing
 1098               	.LM92:
 1099 00b0 0E94 0000 		call open
 281:/Users/kevinKuwata1/Documents/xcode/ECEN1310Final/Mifare_SERVO/Mifare_SERVO/main.c ****     close(); //was for testing
 1101               	.LM93:
 1102 00b4 0E94 0000 		call close
 282:/Users/kevinKuwata1/Documents/xcode/ECEN1310Final/Mifare_SERVO/Mifare_SERVO/main.c ****     
 283:/Users/kevinKuwata1/Documents/xcode/ECEN1310Final/Mifare_SERVO/Mifare_SERVO/main.c ****     //init reader
 284:/Users/kevinKuwata1/Documents/xcode/ECEN1310Final/Mifare_SERVO/Mifare_SERVO/main.c ****     mfrc522_init();
 1104               	.LM94:
 1105 00b8 0E94 0000 		call mfrc522_init
 1106               	.LBB195:
 1107               	.LBB196:
 1109               	.Ltext41:
 187:/usr/local/Cellar/avr-gcc/6.2.0/avr/include/util/delay.h **** 
 1111               	.LM95:
 1112 00bc FFEF      		ldi r31,lo8(2399999)
 1113 00be 2EE9      		ldi r18,hi8(2399999)
 1114 00c0 84E2      		ldi r24,hlo8(2399999)
 1115 00c2 F150      	1:	subi r31,1
 1116 00c4 2040      		sbci r18,0
 1117 00c6 8040      		sbci r24,0
 1118 00c8 01F4      		brne 1b
 1119 00ca 00C0      		rjmp .
 1120 00cc 0000      		nop
 1121               	.LBE196:
 1122               	.LBE195:
 1124               	.Ltext42:
 285:/Users/kevinKuwata1/Documents/xcode/ECEN1310Final/Mifare_SERVO/Mifare_SERVO/main.c ****     
 286:/Users/kevinKuwata1/Documents/xcode/ECEN1310Final/Mifare_SERVO/Mifare_SERVO/main.c ****     _delay_ms(1500);
 287:/Users/kevinKuwata1/Documents/xcode/ECEN1310Final/Mifare_SERVO/Mifare_SERVO/main.c ****     LCDClear();
 1126               	.LM96:
 1127 00ce 60E0      		ldi r22,0
 1128 00d0 81E0      		ldi r24,lo8(1)
 1129 00d2 0E94 0000 		call LCDByte
 288:/Users/kevinKuwata1/Documents/xcode/ECEN1310Final/Mifare_SERVO/Mifare_SERVO/main.c ****     
 289:/Users/kevinKuwata1/Documents/xcode/ECEN1310Final/Mifare_SERVO/Mifare_SERVO/main.c ****     int addNext = 0;
 290:/Users/kevinKuwata1/Documents/xcode/ECEN1310Final/Mifare_SERVO/Mifare_SERVO/main.c ****     int deleteNext =0;
 291:/Users/kevinKuwata1/Documents/xcode/ECEN1310Final/Mifare_SERVO/Mifare_SERVO/main.c ****     
 292:/Users/kevinKuwata1/Documents/xcode/ECEN1310Final/Mifare_SERVO/Mifare_SERVO/main.c ****     
 293:/Users/kevinKuwata1/Documents/xcode/ECEN1310Final/Mifare_SERVO/Mifare_SERVO/main.c ****     PORTC |=BV(ledG);
 1131               	.LM97:
 1132 00d6 429A      		sbi 0x8,2
 1133               	.LBB197:
 1134               	.LBB198:
 1136               	.Ltext43:
 187:/usr/local/Cellar/avr-gcc/6.2.0/avr/include/util/delay.h **** 
 1138               	.LM98:
 1139 00d8 9FE7      		ldi r25,lo8(143999)
 1140 00da E2E3      		ldi r30,hi8(143999)
 1141 00dc F2E0      		ldi r31,hlo8(143999)
 1142 00de 9150      	1:	subi r25,1
 1143 00e0 E040      		sbci r30,0
 1144 00e2 F040      		sbci r31,0
 1145 00e4 01F4      		brne 1b
 1146 00e6 00C0      		rjmp .
 1147 00e8 0000      		nop
 1148               	.LBE198:
 1149               	.LBE197:
 1151               	.Ltext44:
 294:/Users/kevinKuwata1/Documents/xcode/ECEN1310Final/Mifare_SERVO/Mifare_SERVO/main.c ****     _delay_ms(90);
 295:/Users/kevinKuwata1/Documents/xcode/ECEN1310Final/Mifare_SERVO/Mifare_SERVO/main.c ****     PORTC ^= BV(ledG);
 1153               	.LM99:
 1154 00ea 88B1      		in r24,0x8
 1155 00ec 94E0      		ldi r25,lo8(4)
 1156 00ee 8927      		eor r24,r25
 1157 00f0 88B9      		out 0x8,r24
 1158               	.LBB199:
 1159               	.LBB200:
 1161               	.Ltext45:
 187:/usr/local/Cellar/avr-gcc/6.2.0/avr/include/util/delay.h **** 
 1163               	.LM100:
 1164 00f2 8FE5      		ldi r24,lo8(-5537)
 1165 00f4 9AEE      		ldi r25,hi8(-5537)
 1166 00f6 0197      	1:	sbiw r24,1
 1167 00f8 01F4      		brne 1b
 1168 00fa 00C0      		rjmp .
 1169 00fc 0000      		nop
 1170               	.LBE200:
 1171               	.LBE199:
 1173               	.Ltext46:
 290:/Users/kevinKuwata1/Documents/xcode/ECEN1310Final/Mifare_SERVO/Mifare_SERVO/main.c ****     
 1175               	.LM101:
 1176 00fe E12C      		mov r14,__zero_reg__
 1177 0100 F12C      		mov r15,__zero_reg__
 289:/Users/kevinKuwata1/Documents/xcode/ECEN1310Final/Mifare_SERVO/Mifare_SERVO/main.c ****     int deleteNext =0;
 1179               	.LM102:
 1180 0102 00E0      		ldi r16,0
 1181 0104 10E0      		ldi r17,0
 1182 0106 4E01      		movw r8,r28
 1183 0108 96E0      		ldi r25,6
 1184 010a 890E      		add r8,r25
 1185 010c 911C      		adc r9,__zero_reg__
 1186               	.LBB201:
 296:/Users/kevinKuwata1/Documents/xcode/ECEN1310Final/Mifare_SERVO/Mifare_SERVO/main.c ****     _delay_ms(30);
 297:/Users/kevinKuwata1/Documents/xcode/ECEN1310Final/Mifare_SERVO/Mifare_SERVO/main.c ****     
 298:/Users/kevinKuwata1/Documents/xcode/ECEN1310Final/Mifare_SERVO/Mifare_SERVO/main.c ****     while(1){
 299:/Users/kevinKuwata1/Documents/xcode/ECEN1310Final/Mifare_SERVO/Mifare_SERVO/main.c ****         
 300:/Users/kevinKuwata1/Documents/xcode/ECEN1310Final/Mifare_SERVO/Mifare_SERVO/main.c ****         // initLED();
 301:/Users/kevinKuwata1/Documents/xcode/ECEN1310Final/Mifare_SERVO/Mifare_SERVO/main.c ****         
 302:/Users/kevinKuwata1/Documents/xcode/ECEN1310Final/Mifare_SERVO/Mifare_SERVO/main.c ****         loadTags();
 303:/Users/kevinKuwata1/Documents/xcode/ECEN1310Final/Mifare_SERVO/Mifare_SERVO/main.c ****         byte = mfrc522_request(PICC_REQALL,str);
 304:/Users/kevinKuwata1/Documents/xcode/ECEN1310Final/Mifare_SERVO/Mifare_SERVO/main.c ****         
 305:/Users/kevinKuwata1/Documents/xcode/ECEN1310Final/Mifare_SERVO/Mifare_SERVO/main.c ****         LCDHexDumpXY(0,0,byte);
 306:/Users/kevinKuwata1/Documents/xcode/ECEN1310Final/Mifare_SERVO/Mifare_SERVO/main.c ****         buttonRead();
 307:/Users/kevinKuwata1/Documents/xcode/ECEN1310Final/Mifare_SERVO/Mifare_SERVO/main.c ****         LCDClear();
 308:/Users/kevinKuwata1/Documents/xcode/ECEN1310Final/Mifare_SERVO/Mifare_SERVO/main.c ****         
 309:/Users/kevinKuwata1/Documents/xcode/ECEN1310Final/Mifare_SERVO/Mifare_SERVO/main.c ****         while(deleteNext == 1){
 310:/Users/kevinKuwata1/Documents/xcode/ECEN1310Final/Mifare_SERVO/Mifare_SERVO/main.c ****             LCDClear();
 311:/Users/kevinKuwata1/Documents/xcode/ECEN1310Final/Mifare_SERVO/Mifare_SERVO/main.c ****             LCDWriteString("delete tag acivated");
 312:/Users/kevinKuwata1/Documents/xcode/ECEN1310Final/Mifare_SERVO/Mifare_SERVO/main.c ****             _delay_ms(800);
 313:/Users/kevinKuwata1/Documents/xcode/ECEN1310Final/Mifare_SERVO/Mifare_SERVO/main.c ****             byte = mfrc522_request(PICC_REQALL,str);
 314:/Users/kevinKuwata1/Documents/xcode/ECEN1310Final/Mifare_SERVO/Mifare_SERVO/main.c ****             LCDClear();
 315:/Users/kevinKuwata1/Documents/xcode/ECEN1310Final/Mifare_SERVO/Mifare_SERVO/main.c ****             LCDWriteString("Scan again to ");
 316:/Users/kevinKuwata1/Documents/xcode/ECEN1310Final/Mifare_SERVO/Mifare_SERVO/main.c ****             LCDWriteStringXY(0, 1, "delete all tags.");
 317:/Users/kevinKuwata1/Documents/xcode/ECEN1310Final/Mifare_SERVO/Mifare_SERVO/main.c ****             byte = mfrc522_request(PICC_REQALL,str);
 318:/Users/kevinKuwata1/Documents/xcode/ECEN1310Final/Mifare_SERVO/Mifare_SERVO/main.c ****             if(byte == CARD_FOUND)
 319:/Users/kevinKuwata1/Documents/xcode/ECEN1310Final/Mifare_SERVO/Mifare_SERVO/main.c ****             {
 320:/Users/kevinKuwata1/Documents/xcode/ECEN1310Final/Mifare_SERVO/Mifare_SERVO/main.c ****                 byte = mfrc522_get_card_serial(str);
 321:/Users/kevinKuwata1/Documents/xcode/ECEN1310Final/Mifare_SERVO/Mifare_SERVO/main.c ****                 if(byte == CARD_FOUND)
 322:/Users/kevinKuwata1/Documents/xcode/ECEN1310Final/Mifare_SERVO/Mifare_SERVO/main.c ****                 {
 323:/Users/kevinKuwata1/Documents/xcode/ECEN1310Final/Mifare_SERVO/Mifare_SERVO/main.c ****                     for(int j=0; j<=4; j++){
 324:/Users/kevinKuwata1/Documents/xcode/ECEN1310Final/Mifare_SERVO/Mifare_SERVO/main.c ****                         if (tagNumber == 0 || str[j] != tag1[j] || str[j] != tag2[j]) {
 325:/Users/kevinKuwata1/Documents/xcode/ECEN1310Final/Mifare_SERVO/Mifare_SERVO/main.c ****                             deleteNext = 0;
 326:/Users/kevinKuwata1/Documents/xcode/ECEN1310Final/Mifare_SERVO/Mifare_SERVO/main.c ****                         }
 327:/Users/kevinKuwata1/Documents/xcode/ECEN1310Final/Mifare_SERVO/Mifare_SERVO/main.c ****                     }
 328:/Users/kevinKuwata1/Documents/xcode/ECEN1310Final/Mifare_SERVO/Mifare_SERVO/main.c ****                     for(int i=0; i<=4; i++){
 329:/Users/kevinKuwata1/Documents/xcode/ECEN1310Final/Mifare_SERVO/Mifare_SERVO/main.c ****                         if(str[i] == DELETE[i]){
 330:/Users/kevinKuwata1/Documents/xcode/ECEN1310Final/Mifare_SERVO/Mifare_SERVO/main.c ****                             deleteNext =1;//duplicate
 331:/Users/kevinKuwata1/Documents/xcode/ECEN1310Final/Mifare_SERVO/Mifare_SERVO/main.c ****                         }
 332:/Users/kevinKuwata1/Documents/xcode/ECEN1310Final/Mifare_SERVO/Mifare_SERVO/main.c ****                         else
 333:/Users/kevinKuwata1/Documents/xcode/ECEN1310Final/Mifare_SERVO/Mifare_SERVO/main.c ****                             deleteNext =0;
 334:/Users/kevinKuwata1/Documents/xcode/ECEN1310Final/Mifare_SERVO/Mifare_SERVO/main.c ****                     }//end of check if duplicate
 335:/Users/kevinKuwata1/Documents/xcode/ECEN1310Final/Mifare_SERVO/Mifare_SERVO/main.c ****                     
 336:/Users/kevinKuwata1/Documents/xcode/ECEN1310Final/Mifare_SERVO/Mifare_SERVO/main.c ****                     if(deleteNext ==1){
 337:/Users/kevinKuwata1/Documents/xcode/ECEN1310Final/Mifare_SERVO/Mifare_SERVO/main.c ****                         LCDClear();
 338:/Users/kevinKuwata1/Documents/xcode/ECEN1310Final/Mifare_SERVO/Mifare_SERVO/main.c ****                         LCDWriteString("Removing Tags");
 339:/Users/kevinKuwata1/Documents/xcode/ECEN1310Final/Mifare_SERVO/Mifare_SERVO/main.c ****                         _delay_ms(1000);
 340:/Users/kevinKuwata1/Documents/xcode/ECEN1310Final/Mifare_SERVO/Mifare_SERVO/main.c ****                         for(int i=0; i<5; i++){
 341:/Users/kevinKuwata1/Documents/xcode/ECEN1310Final/Mifare_SERVO/Mifare_SERVO/main.c ****                             write_eeprom_word(tag1[i], 0);
 342:/Users/kevinKuwata1/Documents/xcode/ECEN1310Final/Mifare_SERVO/Mifare_SERVO/main.c ****                             write_eeprom_word(tag2[i], 0);
 343:/Users/kevinKuwata1/Documents/xcode/ECEN1310Final/Mifare_SERVO/Mifare_SERVO/main.c ****                         }
 344:/Users/kevinKuwata1/Documents/xcode/ECEN1310Final/Mifare_SERVO/Mifare_SERVO/main.c ****                         tagNumber =1;
 1188               	.LM103:
 1189 010e 4424      		clr r4
 1190 0110 4394      		inc r4
 1191 0112 512C      		mov r5,__zero_reg__
 1192               	.L57:
 1193               	.LBE201:
 302:/Users/kevinKuwata1/Documents/xcode/ECEN1310Final/Mifare_SERVO/Mifare_SERVO/main.c ****         byte = mfrc522_request(PICC_REQALL,str);
 1195               	.LM104:
 1196 0114 0E94 0000 		call loadTags
 303:/Users/kevinKuwata1/Documents/xcode/ECEN1310Final/Mifare_SERVO/Mifare_SERVO/main.c ****         
 1198               	.LM105:
 1199 0118 BE01      		movw r22,r28
 1200 011a 6F5F      		subi r22,-1
 1201 011c 7F4F      		sbci r23,-1
 1202 011e 82E5      		ldi r24,lo8(82)
 1203 0120 0E94 0000 		call mfrc522_request
 1204 0124 D82E      		mov r13,r24
 305:/Users/kevinKuwata1/Documents/xcode/ECEN1310Final/Mifare_SERVO/Mifare_SERVO/main.c ****         buttonRead();
 1206               	.LM106:
 1207 0126 482F      		mov r20,r24
 1208 0128 60E0      		ldi r22,0
 1209 012a 80E0      		ldi r24,0
 1210 012c 0E94 0000 		call LCDHexDumpXY
 306:/Users/kevinKuwata1/Documents/xcode/ECEN1310Final/Mifare_SERVO/Mifare_SERVO/main.c ****         LCDClear();
 1212               	.LM107:
 1213 0130 0E94 0000 		call buttonRead
 307:/Users/kevinKuwata1/Documents/xcode/ECEN1310Final/Mifare_SERVO/Mifare_SERVO/main.c ****         
 1215               	.LM108:
 1216 0134 60E0      		ldi r22,0
 1217 0136 81E0      		ldi r24,lo8(1)
 1218 0138 0E94 0000 		call LCDByte
 1219               	.L28:
 309:/Users/kevinKuwata1/Documents/xcode/ECEN1310Final/Mifare_SERVO/Mifare_SERVO/main.c ****             LCDClear();
 1221               	.LM109:
 1222 013c 21E0      		ldi r18,1
 1223 013e E216      		cp r14,r18
 1224 0140 F104      		cpc r15,__zero_reg__
 1225 0142 01F4      		brne .+2
 1226 0144 00C0      		rjmp .L34
 345:/Users/kevinKuwata1/Documents/xcode/ECEN1310Final/Mifare_SERVO/Mifare_SERVO/main.c ****                         deleteNext =0;
 346:/Users/kevinKuwata1/Documents/xcode/ECEN1310Final/Mifare_SERVO/Mifare_SERVO/main.c ****                         LCDClear();
 347:/Users/kevinKuwata1/Documents/xcode/ECEN1310Final/Mifare_SERVO/Mifare_SERVO/main.c ****                         LCDWriteString("Tags Erased");
 348:/Users/kevinKuwata1/Documents/xcode/ECEN1310Final/Mifare_SERVO/Mifare_SERVO/main.c ****                         _delay_ms(300);
 349:/Users/kevinKuwata1/Documents/xcode/ECEN1310Final/Mifare_SERVO/Mifare_SERVO/main.c ****                         tagNumber =1;
 350:/Users/kevinKuwata1/Documents/xcode/ECEN1310Final/Mifare_SERVO/Mifare_SERVO/main.c ****                         
 351:/Users/kevinKuwata1/Documents/xcode/ECEN1310Final/Mifare_SERVO/Mifare_SERVO/main.c ****                     }
 352:/Users/kevinKuwata1/Documents/xcode/ECEN1310Final/Mifare_SERVO/Mifare_SERVO/main.c ****                     deleteNext =0;
 353:/Users/kevinKuwata1/Documents/xcode/ECEN1310Final/Mifare_SERVO/Mifare_SERVO/main.c ****                     // addNext =0;
 354:/Users/kevinKuwata1/Documents/xcode/ECEN1310Final/Mifare_SERVO/Mifare_SERVO/main.c ****                 }//end of if card found
 355:/Users/kevinKuwata1/Documents/xcode/ECEN1310Final/Mifare_SERVO/Mifare_SERVO/main.c ****             }
 356:/Users/kevinKuwata1/Documents/xcode/ECEN1310Final/Mifare_SERVO/Mifare_SERVO/main.c ****             loadTags();
 357:/Users/kevinKuwata1/Documents/xcode/ECEN1310Final/Mifare_SERVO/Mifare_SERVO/main.c ****             byte = mfrc522_request(PICC_REQALL,str);
 358:/Users/kevinKuwata1/Documents/xcode/ECEN1310Final/Mifare_SERVO/Mifare_SERVO/main.c ****         }//end of delete next
 359:/Users/kevinKuwata1/Documents/xcode/ECEN1310Final/Mifare_SERVO/Mifare_SERVO/main.c ****         
 360:/Users/kevinKuwata1/Documents/xcode/ECEN1310Final/Mifare_SERVO/Mifare_SERVO/main.c ****         while(addNext == 1){
 361:/Users/kevinKuwata1/Documents/xcode/ECEN1310Final/Mifare_SERVO/Mifare_SERVO/main.c ****             PORTC |= BV(ledG);
 362:/Users/kevinKuwata1/Documents/xcode/ECEN1310Final/Mifare_SERVO/Mifare_SERVO/main.c ****             PORTC ^= BV(ledR);
 1228               	.LM110:
 1229 0146 72E0      		ldi r23,lo8(2)
 1230 0148 B72E      		mov r11,r23
 363:/Users/kevinKuwata1/Documents/xcode/ECEN1310Final/Mifare_SERVO/Mifare_SERVO/main.c **** 
 364:/Users/kevinKuwata1/Documents/xcode/ECEN1310Final/Mifare_SERVO/Mifare_SERVO/main.c ****             _delay_ms(50);
 365:/Users/kevinKuwata1/Documents/xcode/ECEN1310Final/Mifare_SERVO/Mifare_SERVO/main.c ****             PORTC ^= BV(ledG);
 1232               	.LM111:
 1233 014a E4E0      		ldi r30,lo8(4)
 1234 014c AE2E      		mov r10,r30
 1235               	.L35:
 360:/Users/kevinKuwata1/Documents/xcode/ECEN1310Final/Mifare_SERVO/Mifare_SERVO/main.c ****             PORTC |= BV(ledG);
 1237               	.LM112:
 1238 014e 0130      		cpi r16,1
 1239 0150 1105      		cpc r17,__zero_reg__
 1240 0152 01F4      		brne .+2
 1241 0154 00C0      		rjmp .L46
 366:/Users/kevinKuwata1/Documents/xcode/ECEN1310Final/Mifare_SERVO/Mifare_SERVO/main.c ****             PORTC |= BV(ledR);
 367:/Users/kevinKuwata1/Documents/xcode/ECEN1310Final/Mifare_SERVO/Mifare_SERVO/main.c **** 
 368:/Users/kevinKuwata1/Documents/xcode/ECEN1310Final/Mifare_SERVO/Mifare_SERVO/main.c ****             _delay_ms(50);
 369:/Users/kevinKuwata1/Documents/xcode/ECEN1310Final/Mifare_SERVO/Mifare_SERVO/main.c **** 
 370:/Users/kevinKuwata1/Documents/xcode/ECEN1310Final/Mifare_SERVO/Mifare_SERVO/main.c **** 
 371:/Users/kevinKuwata1/Documents/xcode/ECEN1310Final/Mifare_SERVO/Mifare_SERVO/main.c ****             
 372:/Users/kevinKuwata1/Documents/xcode/ECEN1310Final/Mifare_SERVO/Mifare_SERVO/main.c ****             
 373:/Users/kevinKuwata1/Documents/xcode/ECEN1310Final/Mifare_SERVO/Mifare_SERVO/main.c ****             byte = mfrc522_request(PICC_REQALL,str);
 374:/Users/kevinKuwata1/Documents/xcode/ECEN1310Final/Mifare_SERVO/Mifare_SERVO/main.c ****             LCDClear();
 375:/Users/kevinKuwata1/Documents/xcode/ECEN1310Final/Mifare_SERVO/Mifare_SERVO/main.c ****             LCDWriteString("Scan tag to ");
 376:/Users/kevinKuwata1/Documents/xcode/ECEN1310Final/Mifare_SERVO/Mifare_SERVO/main.c ****             LCDWriteStringXY(0, 1, "be added.");
 377:/Users/kevinKuwata1/Documents/xcode/ECEN1310Final/Mifare_SERVO/Mifare_SERVO/main.c ****             byte = mfrc522_request(PICC_REQALL,str);
 378:/Users/kevinKuwata1/Documents/xcode/ECEN1310Final/Mifare_SERVO/Mifare_SERVO/main.c ****             
 379:/Users/kevinKuwata1/Documents/xcode/ECEN1310Final/Mifare_SERVO/Mifare_SERVO/main.c ****             if(addNext ==1 && tagNumber >2)
 380:/Users/kevinKuwata1/Documents/xcode/ECEN1310Final/Mifare_SERVO/Mifare_SERVO/main.c ****             {
 381:/Users/kevinKuwata1/Documents/xcode/ECEN1310Final/Mifare_SERVO/Mifare_SERVO/main.c ****                 addNext =0;
 382:/Users/kevinKuwata1/Documents/xcode/ECEN1310Final/Mifare_SERVO/Mifare_SERVO/main.c ****                 tagNumber =3;
 383:/Users/kevinKuwata1/Documents/xcode/ECEN1310Final/Mifare_SERVO/Mifare_SERVO/main.c ****                 LCDClear();
 384:/Users/kevinKuwata1/Documents/xcode/ECEN1310Final/Mifare_SERVO/Mifare_SERVO/main.c ****                 LCDWriteStringXY(0,0, "EEPROM Tag Slots");
 385:/Users/kevinKuwata1/Documents/xcode/ECEN1310Final/Mifare_SERVO/Mifare_SERVO/main.c ****                 LCDWriteStringXY(0,1,"Full");
 386:/Users/kevinKuwata1/Documents/xcode/ECEN1310Final/Mifare_SERVO/Mifare_SERVO/main.c ****                 _delay_ms(1000);
 387:/Users/kevinKuwata1/Documents/xcode/ECEN1310Final/Mifare_SERVO/Mifare_SERVO/main.c ****                 
 388:/Users/kevinKuwata1/Documents/xcode/ECEN1310Final/Mifare_SERVO/Mifare_SERVO/main.c ****             }
 389:/Users/kevinKuwata1/Documents/xcode/ECEN1310Final/Mifare_SERVO/Mifare_SERVO/main.c ****             if(byte == CARD_FOUND)
 390:/Users/kevinKuwata1/Documents/xcode/ECEN1310Final/Mifare_SERVO/Mifare_SERVO/main.c ****             {
 391:/Users/kevinKuwata1/Documents/xcode/ECEN1310Final/Mifare_SERVO/Mifare_SERVO/main.c ****                 byte = mfrc522_get_card_serial(str);
 392:/Users/kevinKuwata1/Documents/xcode/ECEN1310Final/Mifare_SERVO/Mifare_SERVO/main.c ****                 if(byte == CARD_FOUND)
 393:/Users/kevinKuwata1/Documents/xcode/ECEN1310Final/Mifare_SERVO/Mifare_SERVO/main.c ****                 {
 394:/Users/kevinKuwata1/Documents/xcode/ECEN1310Final/Mifare_SERVO/Mifare_SERVO/main.c ****                     for(int i=0; i<=4; i++){
 395:/Users/kevinKuwata1/Documents/xcode/ECEN1310Final/Mifare_SERVO/Mifare_SERVO/main.c ****                         if(str[i] == ram_tag1[i] || str[i]== ram_tag2[i]){
 396:/Users/kevinKuwata1/Documents/xcode/ECEN1310Final/Mifare_SERVO/Mifare_SERVO/main.c ****                             LCDClear();
 397:/Users/kevinKuwata1/Documents/xcode/ECEN1310Final/Mifare_SERVO/Mifare_SERVO/main.c ****                             LCDWriteStringXY(0,0, "Error 3:");
 398:/Users/kevinKuwata1/Documents/xcode/ECEN1310Final/Mifare_SERVO/Mifare_SERVO/main.c ****                             LCDWriteString("Tag already");
 399:/Users/kevinKuwata1/Documents/xcode/ECEN1310Final/Mifare_SERVO/Mifare_SERVO/main.c ****                             LCDWriteStringXY(0,1, "stored");
 400:/Users/kevinKuwata1/Documents/xcode/ECEN1310Final/Mifare_SERVO/Mifare_SERVO/main.c ****                             _delay_ms(2000);
 401:/Users/kevinKuwata1/Documents/xcode/ECEN1310Final/Mifare_SERVO/Mifare_SERVO/main.c ****                             addNext =0;//duplicate
 402:/Users/kevinKuwata1/Documents/xcode/ECEN1310Final/Mifare_SERVO/Mifare_SERVO/main.c ****                             i =5;
 403:/Users/kevinKuwata1/Documents/xcode/ECEN1310Final/Mifare_SERVO/Mifare_SERVO/main.c ****                             //not likely to happen but it could
 404:/Users/kevinKuwata1/Documents/xcode/ECEN1310Final/Mifare_SERVO/Mifare_SERVO/main.c ****                         }
 405:/Users/kevinKuwata1/Documents/xcode/ECEN1310Final/Mifare_SERVO/Mifare_SERVO/main.c ****                         if(str[i] == ADD[i]){
 406:/Users/kevinKuwata1/Documents/xcode/ECEN1310Final/Mifare_SERVO/Mifare_SERVO/main.c ****                                 LCDClear();
 407:/Users/kevinKuwata1/Documents/xcode/ECEN1310Final/Mifare_SERVO/Mifare_SERVO/main.c ****                                 LCDWriteString("Error 1:");
 408:/Users/kevinKuwata1/Documents/xcode/ECEN1310Final/Mifare_SERVO/Mifare_SERVO/main.c ****                             LCDWriteStringXY(0,1,"attempting to");
 409:/Users/kevinKuwata1/Documents/xcode/ECEN1310Final/Mifare_SERVO/Mifare_SERVO/main.c ****                             _delay_ms(1000);
 410:/Users/kevinKuwata1/Documents/xcode/ECEN1310Final/Mifare_SERVO/Mifare_SERVO/main.c ****                             LCDWriteStringXY(0,1,"add a protected");
 411:/Users/kevinKuwata1/Documents/xcode/ECEN1310Final/Mifare_SERVO/Mifare_SERVO/main.c ****                             _delay_ms(1000);
 412:/Users/kevinKuwata1/Documents/xcode/ECEN1310Final/Mifare_SERVO/Mifare_SERVO/main.c ****                             LCDWriteStringXY(0,1,"RFID tag.       ")
 413:/Users/kevinKuwata1/Documents/xcode/ECEN1310Final/Mifare_SERVO/Mifare_SERVO/main.c ****                             _delay_ms(1000);
 414:/Users/kevinKuwata1/Documents/xcode/ECEN1310Final/Mifare_SERVO/Mifare_SERVO/main.c ****                             addNext =0;//duplicate
 415:/Users/kevinKuwata1/Documents/xcode/ECEN1310Final/Mifare_SERVO/Mifare_SERVO/main.c ****                             i=5;//key in preventing loop from executing multiple times.
 416:/Users/kevinKuwata1/Documents/xcode/ECEN1310Final/Mifare_SERVO/Mifare_SERVO/main.c ****                                 //not likely to happen but it could
 417:/Users/kevinKuwata1/Documents/xcode/ECEN1310Final/Mifare_SERVO/Mifare_SERVO/main.c ****                         }
 418:/Users/kevinKuwata1/Documents/xcode/ECEN1310Final/Mifare_SERVO/Mifare_SERVO/main.c **** //                        if(str[i] == DELETE[i]){
 419:/Users/kevinKuwata1/Documents/xcode/ECEN1310Final/Mifare_SERVO/Mifare_SERVO/main.c **** //                            LCDClear();
 420:/Users/kevinKuwata1/Documents/xcode/ECEN1310Final/Mifare_SERVO/Mifare_SERVO/main.c **** //                            LCDWriteString("Error 2:");
 421:/Users/kevinKuwata1/Documents/xcode/ECEN1310Final/Mifare_SERVO/Mifare_SERVO/main.c **** //                            LCDWriteStringXY(0,1,"attempting to");
 422:/Users/kevinKuwata1/Documents/xcode/ECEN1310Final/Mifare_SERVO/Mifare_SERVO/main.c **** //                            _delay_ms(1000);
 423:/Users/kevinKuwata1/Documents/xcode/ECEN1310Final/Mifare_SERVO/Mifare_SERVO/main.c **** //                            LCDWriteStringXY(0,1,"add a protected");
 424:/Users/kevinKuwata1/Documents/xcode/ECEN1310Final/Mifare_SERVO/Mifare_SERVO/main.c **** //                            _delay_ms(1000);
 425:/Users/kevinKuwata1/Documents/xcode/ECEN1310Final/Mifare_SERVO/Mifare_SERVO/main.c **** //                            LCDWriteStringXY(0,1,"RFID tag.       ")
 426:/Users/kevinKuwata1/Documents/xcode/ECEN1310Final/Mifare_SERVO/Mifare_SERVO/main.c **** //                            _delay_ms(1000);
 427:/Users/kevinKuwata1/Documents/xcode/ECEN1310Final/Mifare_SERVO/Mifare_SERVO/main.c **** //                            addNext =0;//duplicate
 428:/Users/kevinKuwata1/Documents/xcode/ECEN1310Final/Mifare_SERVO/Mifare_SERVO/main.c **** //                            i=5;//key in preventing loop from executing multiple times.
 429:/Users/kevinKuwata1/Documents/xcode/ECEN1310Final/Mifare_SERVO/Mifare_SERVO/main.c **** //                            //not likely to happen but it could
 430:/Users/kevinKuwata1/Documents/xcode/ECEN1310Final/Mifare_SERVO/Mifare_SERVO/main.c **** //                        }
 431:/Users/kevinKuwata1/Documents/xcode/ECEN1310Final/Mifare_SERVO/Mifare_SERVO/main.c ****                         else{
 432:/Users/kevinKuwata1/Documents/xcode/ECEN1310Final/Mifare_SERVO/Mifare_SERVO/main.c ****                             LCDClear();
 433:/Users/kevinKuwata1/Documents/xcode/ECEN1310Final/Mifare_SERVO/Mifare_SERVO/main.c ****                             //addNext =1;
 434:/Users/kevinKuwata1/Documents/xcode/ECEN1310Final/Mifare_SERVO/Mifare_SERVO/main.c ****                         }
 435:/Users/kevinKuwata1/Documents/xcode/ECEN1310Final/Mifare_SERVO/Mifare_SERVO/main.c ****                     }//end of check if duplicate
 436:/Users/kevinKuwata1/Documents/xcode/ECEN1310Final/Mifare_SERVO/Mifare_SERVO/main.c ****                     if(tagNumber ==1 && addNext ==1){
 437:/Users/kevinKuwata1/Documents/xcode/ECEN1310Final/Mifare_SERVO/Mifare_SERVO/main.c ****                         LCDClear();
 438:/Users/kevinKuwata1/Documents/xcode/ECEN1310Final/Mifare_SERVO/Mifare_SERVO/main.c ****                         LCDWriteString("ADDING CARD 1");
 439:/Users/kevinKuwata1/Documents/xcode/ECEN1310Final/Mifare_SERVO/Mifare_SERVO/main.c ****                         _delay_ms(1000);
 440:/Users/kevinKuwata1/Documents/xcode/ECEN1310Final/Mifare_SERVO/Mifare_SERVO/main.c ****                         for(int i=0; i<5; i++){
 441:/Users/kevinKuwata1/Documents/xcode/ECEN1310Final/Mifare_SERVO/Mifare_SERVO/main.c ****                             write_eeprom_word(tag1[i], str[i]);
 442:/Users/kevinKuwata1/Documents/xcode/ECEN1310Final/Mifare_SERVO/Mifare_SERVO/main.c ****                         }
 443:/Users/kevinKuwata1/Documents/xcode/ECEN1310Final/Mifare_SERVO/Mifare_SERVO/main.c ****                         tagNumber=2;
 444:/Users/kevinKuwata1/Documents/xcode/ECEN1310Final/Mifare_SERVO/Mifare_SERVO/main.c ****                         addNext =0;
 445:/Users/kevinKuwata1/Documents/xcode/ECEN1310Final/Mifare_SERVO/Mifare_SERVO/main.c ****                         deleteNext =0;
 446:/Users/kevinKuwata1/Documents/xcode/ECEN1310Final/Mifare_SERVO/Mifare_SERVO/main.c ****                         LCDClear();
 447:/Users/kevinKuwata1/Documents/xcode/ECEN1310Final/Mifare_SERVO/Mifare_SERVO/main.c ****                     }
 448:/Users/kevinKuwata1/Documents/xcode/ECEN1310Final/Mifare_SERVO/Mifare_SERVO/main.c ****                     
 449:/Users/kevinKuwata1/Documents/xcode/ECEN1310Final/Mifare_SERVO/Mifare_SERVO/main.c ****                     else if(tagNumber ==2 && addNext ==1){
 450:/Users/kevinKuwata1/Documents/xcode/ECEN1310Final/Mifare_SERVO/Mifare_SERVO/main.c ****                         LCDClear();
 451:/Users/kevinKuwata1/Documents/xcode/ECEN1310Final/Mifare_SERVO/Mifare_SERVO/main.c ****                         LCDWriteString("ADDING CARD 2");
 452:/Users/kevinKuwata1/Documents/xcode/ECEN1310Final/Mifare_SERVO/Mifare_SERVO/main.c ****                         _delay_ms(1000);
 453:/Users/kevinKuwata1/Documents/xcode/ECEN1310Final/Mifare_SERVO/Mifare_SERVO/main.c ****                         for(int i=0; i<5; i++){
 454:/Users/kevinKuwata1/Documents/xcode/ECEN1310Final/Mifare_SERVO/Mifare_SERVO/main.c ****                             write_eeprom_word(tag2[i], str[i]);
 455:/Users/kevinKuwata1/Documents/xcode/ECEN1310Final/Mifare_SERVO/Mifare_SERVO/main.c ****                         }
 456:/Users/kevinKuwata1/Documents/xcode/ECEN1310Final/Mifare_SERVO/Mifare_SERVO/main.c ****                         tagNumber=3;
 457:/Users/kevinKuwata1/Documents/xcode/ECEN1310Final/Mifare_SERVO/Mifare_SERVO/main.c ****                         addNext = 0;
 458:/Users/kevinKuwata1/Documents/xcode/ECEN1310Final/Mifare_SERVO/Mifare_SERVO/main.c ****                         deleteNext =0;
 459:/Users/kevinKuwata1/Documents/xcode/ECEN1310Final/Mifare_SERVO/Mifare_SERVO/main.c ****                         LCDClear();
 460:/Users/kevinKuwata1/Documents/xcode/ECEN1310Final/Mifare_SERVO/Mifare_SERVO/main.c ****                     }
 461:/Users/kevinKuwata1/Documents/xcode/ECEN1310Final/Mifare_SERVO/Mifare_SERVO/main.c ****                 }//end of if card found
 462:/Users/kevinKuwata1/Documents/xcode/ECEN1310Final/Mifare_SERVO/Mifare_SERVO/main.c ****             }
 463:/Users/kevinKuwata1/Documents/xcode/ECEN1310Final/Mifare_SERVO/Mifare_SERVO/main.c ****             loadTags();
 464:/Users/kevinKuwata1/Documents/xcode/ECEN1310Final/Mifare_SERVO/Mifare_SERVO/main.c ****             byte = mfrc522_request(PICC_REQALL,str);
 465:/Users/kevinKuwata1/Documents/xcode/ECEN1310Final/Mifare_SERVO/Mifare_SERVO/main.c ****         }
 466:/Users/kevinKuwata1/Documents/xcode/ECEN1310Final/Mifare_SERVO/Mifare_SERVO/main.c ****         
 467:/Users/kevinKuwata1/Documents/xcode/ECEN1310Final/Mifare_SERVO/Mifare_SERVO/main.c ****         if(byte == CARD_FOUND && addNext !=1)
 1243               	.LM113:
 1244 0156 91E0      		ldi r25,lo8(1)
 1245 0158 D912      		cpse r13,r25
 1246 015a 00C0      		rjmp .L59
 1247               	.LBB208:
 468:/Users/kevinKuwata1/Documents/xcode/ECEN1310Final/Mifare_SERVO/Mifare_SERVO/main.c ****         {
 469:/Users/kevinKuwata1/Documents/xcode/ECEN1310Final/Mifare_SERVO/Mifare_SERVO/main.c ****             byte = mfrc522_get_card_serial(str);
 1249               	.LM114:
 1250 015c CE01      		movw r24,r28
 1251 015e 0196      		adiw r24,1
 1252 0160 0E94 0000 		call mfrc522_get_card_serial
 470:/Users/kevinKuwata1/Documents/xcode/ECEN1310Final/Mifare_SERVO/Mifare_SERVO/main.c ****             if(byte == CARD_FOUND)
 1254               	.LM115:
 1255 0164 8130      		cpi r24,lo8(1)
 1256 0166 01F0      		breq .+2
 1257 0168 00C0      		rjmp .L48
 1258 016a FE01      		movw r30,r28
 1259 016c 3196      		adiw r30,1
 1260 016e 7F01      		movw r14,r30
 1261               	.L49:
 471:/Users/kevinKuwata1/Documents/xcode/ECEN1310Final/Mifare_SERVO/Mifare_SERVO/main.c ****             {
 472:/Users/kevinKuwata1/Documents/xcode/ECEN1310Final/Mifare_SERVO/Mifare_SERVO/main.c ****                 for(byte=0;byte<5;byte++){
 473:/Users/kevinKuwata1/Documents/xcode/ECEN1310Final/Mifare_SERVO/Mifare_SERVO/main.c ****                     LCDWriteInt(str[byte], -1);
 1263               	.LM116:
 1264 0170 F701      		movw r30,r14
 1265 0172 8191      		ld r24,Z+
 1266 0174 7F01      		movw r14,r30
 1267 0176 6FEF      		ldi r22,lo8(-1)
 1268 0178 7FEF      		ldi r23,lo8(-1)
 1269 017a 90E0      		ldi r25,0
 1270 017c 0E94 0000 		call LCDWriteInt
 472:/Users/kevinKuwata1/Documents/xcode/ECEN1310Final/Mifare_SERVO/Mifare_SERVO/main.c ****                     LCDWriteInt(str[byte], -1);
 1272               	.LM117:
 1273 0180 E814      		cp r14,r8
 1274 0182 F904      		cpc r15,r9
 1275 0184 01F4      		brne .L49
 1276               	.L50:
 1277 0186 CE01      		movw r24,r28
 1278 0188 0196      		adiw r24,1
 1279 018a 6C01      		movw r12,r24
 1280               	.LBE208:
 1281               	.LBB226:
 457:/Users/kevinKuwata1/Documents/xcode/ECEN1310Final/Mifare_SERVO/Mifare_SERVO/main.c ****                         deleteNext =0;
 1283               	.LM118:
 1284 018c 3C01      		movw r6,r24
 1285               	.L51:
 1286               	.LBE226:
 1287               	.LBB243:
 1288               	.LBB209:
 1289               	.LBB210:
 1290               	.LBB211:
 1292               	.Ltext47:
 187:/usr/local/Cellar/avr-gcc/6.2.0/avr/include/util/delay.h **** 
 1294               	.LM119:
 1295 018e 8FE5      		ldi r24,lo8(-5537)
 1296 0190 9AEE      		ldi r25,hi8(-5537)
 1297 0192 0197      	1:	sbiw r24,1
 1298 0194 01F4      		brne 1b
 1299 0196 00C0      		rjmp .
 1300 0198 0000      		nop
 1301               	.LBE211:
 1302               	.LBE210:
 1304               	.Ltext48:
 474:/Users/kevinKuwata1/Documents/xcode/ECEN1310Final/Mifare_SERVO/Mifare_SERVO/main.c ****                     if(card_display_Delay==1){_delay_ms(1000);}
 475:/Users/kevinKuwata1/Documents/xcode/ECEN1310Final/Mifare_SERVO/Mifare_SERVO/main.c ****                 }
 476:/Users/kevinKuwata1/Documents/xcode/ECEN1310Final/Mifare_SERVO/Mifare_SERVO/main.c ****             }
 477:/Users/kevinKuwata1/Documents/xcode/ECEN1310Final/Mifare_SERVO/Mifare_SERVO/main.c ****             else
 478:/Users/kevinKuwata1/Documents/xcode/ECEN1310Final/Mifare_SERVO/Mifare_SERVO/main.c ****             { //not a valid card found
 479:/Users/kevinKuwata1/Documents/xcode/ECEN1310Final/Mifare_SERVO/Mifare_SERVO/main.c ****                 LCDWriteStringXY(0,1,"Error");
 480:/Users/kevinKuwata1/Documents/xcode/ECEN1310Final/Mifare_SERVO/Mifare_SERVO/main.c ****             }
 481:/Users/kevinKuwata1/Documents/xcode/ECEN1310Final/Mifare_SERVO/Mifare_SERVO/main.c ****             for(int i=0; i<5; i++){
 482:/Users/kevinKuwata1/Documents/xcode/ECEN1310Final/Mifare_SERVO/Mifare_SERVO/main.c ****                 _delay_ms(30);//test
 483:/Users/kevinKuwata1/Documents/xcode/ECEN1310Final/Mifare_SERVO/Mifare_SERVO/main.c ****                 LCDWriteInt(str[i], -1);//test
 1306               	.LM120:
 1307 019a F301      		movw r30,r6
 1308 019c 8191      		ld r24,Z+
 1309 019e 3F01      		movw r6,r30
 1310 01a0 6FEF      		ldi r22,lo8(-1)
 1311 01a2 7FEF      		ldi r23,lo8(-1)
 1312 01a4 90E0      		ldi r25,0
 1313 01a6 0E94 0000 		call LCDWriteInt
 481:/Users/kevinKuwata1/Documents/xcode/ECEN1310Final/Mifare_SERVO/Mifare_SERVO/main.c ****                 _delay_ms(30);//test
 1315               	.LM121:
 1316 01aa 8614      		cp r8,r6
 1317 01ac 9704      		cpc r9,r7
 1318 01ae 01F4      		brne .L51
 1319               	.LBE209:
 1320               	.LBB212:
 1321               	.LBB213:
 1323               	.Ltext49:
 187:/usr/local/Cellar/avr-gcc/6.2.0/avr/include/util/delay.h **** 
 1325               	.LM122:
 1326 01b0 FFEF      		ldi r31,lo8(159999)
 1327 01b2 20E7      		ldi r18,hi8(159999)
 1328 01b4 82E0      		ldi r24,hlo8(159999)
 1329 01b6 F150      	1:	subi r31,1
 1330 01b8 2040      		sbci r18,0
 1331 01ba 8040      		sbci r24,0
 1332 01bc 01F4      		brne 1b
 1333 01be 00C0      		rjmp .
 1334 01c0 0000      		nop
 1335               	.LBE213:
 1336               	.LBE212:
 1338               	.Ltext50:
 484:/Users/kevinKuwata1/Documents/xcode/ECEN1310Final/Mifare_SERVO/Mifare_SERVO/main.c ****             }
 485:/Users/kevinKuwata1/Documents/xcode/ECEN1310Final/Mifare_SERVO/Mifare_SERVO/main.c ****             _delay_ms(100);//test
 486:/Users/kevinKuwata1/Documents/xcode/ECEN1310Final/Mifare_SERVO/Mifare_SERVO/main.c ****             LCDClear();//test
 1340               	.LM123:
 1341 01c2 60E0      		ldi r22,0
 1342 01c4 81E0      		ldi r24,lo8(1)
 1343 01c6 0E94 0000 		call LCDByte
 1344 01ca E0E0      		ldi r30,lo8(card2)
 1345 01cc F0E0      		ldi r31,hi8(card2)
 1346 01ce FA8F      		std Y+26,r31
 1347 01d0 E98F      		std Y+25,r30
 1348 01d2 20E0      		ldi r18,lo8(ADD)
 1349 01d4 222E      		mov r2,r18
 1350 01d6 20E0      		ldi r18,hi8(ADD)
 1351 01d8 322E      		mov r3,r18
 1352 01da 80E0      		ldi r24,lo8(DELETE)
 1353 01dc 90E0      		ldi r25,hi8(DELETE)
 1354 01de 9C8B      		std Y+20,r25
 1355 01e0 8B8B      		std Y+19,r24
 1356 01e2 E0E0      		ldi r30,lo8(ram_tag2)
 1357 01e4 F0E0      		ldi r31,hi8(ram_tag2)
 1358 01e6 F88F      		std Y+24,r31
 1359 01e8 EF8B      		std Y+23,r30
 1360 01ea 80E0      		ldi r24,lo8(ram_tag1)
 1361 01ec 90E0      		ldi r25,hi8(ram_tag1)
 1362 01ee 9A8B      		std Y+18,r25
 1363 01f0 898B      		std Y+17,r24
 1364 01f2 E0E0      		ldi r30,lo8(card1)
 1365 01f4 F0E0      		ldi r31,hi8(card1)
 1366 01f6 FE8B      		std Y+22,r31
 1367 01f8 ED8B      		std Y+21,r30
 1368 01fa 7801      		movw r14,r16
 1369 01fc 5801      		movw r10,r16
 1370               	.L55:
 1371               	.LBB214:
 487:/Users/kevinKuwata1/Documents/xcode/ECEN1310Final/Mifare_SERVO/Mifare_SERVO/main.c ****             
 488:/Users/kevinKuwata1/Documents/xcode/ECEN1310Final/Mifare_SERVO/Mifare_SERVO/main.c ****             for(int k=0;k<5 ;k++){ //loop through id arras
 489:/Users/kevinKuwata1/Documents/xcode/ECEN1310Final/Mifare_SERVO/Mifare_SERVO/main.c ****                 LCDWriteIntXY(0,1,str[k], -1);
 1373               	.LM124:
 1374 01fe 61E0      		ldi r22,lo8(1)
 1375 0200 80E0      		ldi r24,0
 1376 0202 0E94 0000 		call LCDGotoXY
 1377 0206 F601      		movw r30,r12
 1378 0208 8081      		ld r24,Z
 1379 020a 6FEF      		ldi r22,lo8(-1)
 1380 020c 7FEF      		ldi r23,lo8(-1)
 1381 020e 90E0      		ldi r25,0
 1382 0210 0E94 0000 		call LCDWriteInt
 490:/Users/kevinKuwata1/Documents/xcode/ECEN1310Final/Mifare_SERVO/Mifare_SERVO/main.c ****                 if(str[k] == card2[k] || str[k] == card1[k] || str[k] == ram_tag1[k] || str[k] ==ra
 1384               	.LM125:
 1385 0214 F601      		movw r30,r12
 1386 0216 8081      		ld r24,Z
 1387 0218 E98D      		ldd r30,Y+25
 1388 021a FA8D      		ldd r31,Y+26
 1389 021c 9191      		ld r25,Z+
 1390 021e FA8F      		std Y+26,r31
 1391 0220 E98F      		std Y+25,r30
 1392 0222 8917      		cp r24,r25
 1393 0224 01F0      		breq .L52
 1395               	.LM126:
 1396 0226 ED89      		ldd r30,Y+21
 1397 0228 FE89      		ldd r31,Y+22
 1398 022a 9081      		ld r25,Z
 1399 022c 8917      		cp r24,r25
 1400 022e 01F0      		breq .L52
 1402               	.LM127:
 1403 0230 E989      		ldd r30,Y+17
 1404 0232 FA89      		ldd r31,Y+18
 1405 0234 9081      		ld r25,Z
 1406 0236 8917      		cp r24,r25
 1407 0238 01F0      		breq .L52
 1409               	.LM128:
 1410 023a EF89      		ldd r30,Y+23
 1411 023c F88D      		ldd r31,Y+24
 1412 023e 9081      		ld r25,Z
 1413 0240 8913      		cpse r24,r25
 1414 0242 00C0      		rjmp .L53
 1415               	.L52:
 491:/Users/kevinKuwata1/Documents/xcode/ECEN1310Final/Mifare_SERVO/Mifare_SERVO/main.c ****                 {
 492:/Users/kevinKuwata1/Documents/xcode/ECEN1310Final/Mifare_SERVO/Mifare_SERVO/main.c ****                     LCDWriteIntXY(0,1,str[k], -1);
 1417               	.LM129:
 1418 0244 61E0      		ldi r22,lo8(1)
 1419 0246 80E0      		ldi r24,0
 1420 0248 0E94 0000 		call LCDGotoXY
 1421 024c F601      		movw r30,r12
 1422 024e 8081      		ld r24,Z
 1423 0250 6FEF      		ldi r22,lo8(-1)
 1424 0252 7FEF      		ldi r23,lo8(-1)
 1425 0254 90E0      		ldi r25,0
 1426 0256 0E94 0000 		call LCDWriteInt
 493:/Users/kevinKuwata1/Documents/xcode/ECEN1310Final/Mifare_SERVO/Mifare_SERVO/main.c ****                     LCDWriteString("MATCH");
 1428               	.LM130:
 1429 025a 80E0      		ldi r24,lo8(.LC23)
 1430 025c 90E0      		ldi r25,hi8(.LC23)
 1431 025e 0E94 0000 		call LCDWriteString
 1432               	.LBB215:
 1433               	.LBB216:
 1435               	.Ltext51:
 187:/usr/local/Cellar/avr-gcc/6.2.0/avr/include/util/delay.h **** 
 1437               	.LM131:
 1438 0262 FFE7      		ldi r31,lo8(79999)
 1439 0264 28E3      		ldi r18,hi8(79999)
 1440 0266 81E0      		ldi r24,hlo8(79999)
 1441 0268 F150      	1:	subi r31,1
 1442 026a 2040      		sbci r18,0
 1443 026c 8040      		sbci r24,0
 1444 026e 01F4      		brne 1b
 1445 0270 00C0      		rjmp .
 1446 0272 0000      		nop
 1447               	.LBE216:
 1448               	.LBE215:
 1450               	.Ltext52:
 494:/Users/kevinKuwata1/Documents/xcode/ECEN1310Final/Mifare_SERVO/Mifare_SERVO/main.c ****                     _delay_ms(50);
 495:/Users/kevinKuwata1/Documents/xcode/ECEN1310Final/Mifare_SERVO/Mifare_SERVO/main.c ****                     LCDClear();
 1452               	.LM132:
 1453 0274 60E0      		ldi r22,0
 1454 0276 81E0      		ldi r24,lo8(1)
 1455 0278 0E94 0000 		call LCDByte
 496:/Users/kevinKuwata1/Documents/xcode/ECEN1310Final/Mifare_SERVO/Mifare_SERVO/main.c ****                     validCard = 1;
 1457               	.LM133:
 1458 027c 5092 0000 		sts validCard+1,r5
 1459 0280 4092 0000 		sts validCard,r4
 1460               	.L54:
 1461 0284 FFEF      		ldi r31,-1
 1462 0286 CF1A      		sub r12,r31
 1463 0288 DF0A      		sbc r13,r31
 1464 028a 2FEF      		ldi r18,-1
 1465 028c 221A      		sub r2,r18
 1466 028e 320A      		sbc r3,r18
 1467 0290 8B89      		ldd r24,Y+19
 1468 0292 9C89      		ldd r25,Y+20
 1469 0294 0196      		adiw r24,1
 1470 0296 9C8B      		std Y+20,r25
 1471 0298 8B8B      		std Y+19,r24
 1472 029a EF89      		ldd r30,Y+23
 1473 029c F88D      		ldd r31,Y+24
 1474 029e 3196      		adiw r30,1
 1475 02a0 F88F      		std Y+24,r31
 1476 02a2 EF8B      		std Y+23,r30
 1477 02a4 8989      		ldd r24,Y+17
 1478 02a6 9A89      		ldd r25,Y+18
 1479 02a8 0196      		adiw r24,1
 1480 02aa 9A8B      		std Y+18,r25
 1481 02ac 898B      		std Y+17,r24
 1482 02ae ED89      		ldd r30,Y+21
 1483 02b0 FE89      		ldd r31,Y+22
 1484 02b2 3196      		adiw r30,1
 1485 02b4 FE8B      		std Y+22,r31
 1486 02b6 ED8B      		std Y+21,r30
 488:/Users/kevinKuwata1/Documents/xcode/ECEN1310Final/Mifare_SERVO/Mifare_SERVO/main.c ****                 LCDWriteIntXY(0,1,str[k], -1);
 1488               	.LM134:
 1489 02b8 6C14      		cp r6,r12
 1490 02ba 7D04      		cpc r7,r13
 1491 02bc 01F0      		breq .+2
 1492 02be 00C0      		rjmp .L55
 1493               	.LBE214:
 497:/Users/kevinKuwata1/Documents/xcode/ECEN1310Final/Mifare_SERVO/Mifare_SERVO/main.c ****                 }
 498:/Users/kevinKuwata1/Documents/xcode/ECEN1310Final/Mifare_SERVO/Mifare_SERVO/main.c ****                 else if(str[k] == ADD[k]){
 499:/Users/kevinKuwata1/Documents/xcode/ECEN1310Final/Mifare_SERVO/Mifare_SERVO/main.c ****                     //nextTag read add
 500:/Users/kevinKuwata1/Documents/xcode/ECEN1310Final/Mifare_SERVO/Mifare_SERVO/main.c ****                     addNext = 1; //add the next tag
 501:/Users/kevinKuwata1/Documents/xcode/ECEN1310Final/Mifare_SERVO/Mifare_SERVO/main.c ****                     
 502:/Users/kevinKuwata1/Documents/xcode/ECEN1310Final/Mifare_SERVO/Mifare_SERVO/main.c ****                 } //end of add
 503:/Users/kevinKuwata1/Documents/xcode/ECEN1310Final/Mifare_SERVO/Mifare_SERVO/main.c ****                 else if(str[k] == DELETE[k]){
 504:/Users/kevinKuwata1/Documents/xcode/ECEN1310Final/Mifare_SERVO/Mifare_SERVO/main.c ****                     deleteNext =1;
 505:/Users/kevinKuwata1/Documents/xcode/ECEN1310Final/Mifare_SERVO/Mifare_SERVO/main.c ****                 }
 506:/Users/kevinKuwata1/Documents/xcode/ECEN1310Final/Mifare_SERVO/Mifare_SERVO/main.c ****                 else{
 507:/Users/kevinKuwata1/Documents/xcode/ECEN1310Final/Mifare_SERVO/Mifare_SERVO/main.c ****                     validCard = -1;
 508:/Users/kevinKuwata1/Documents/xcode/ECEN1310Final/Mifare_SERVO/Mifare_SERVO/main.c ****                     deleteNext = 0;
 509:/Users/kevinKuwata1/Documents/xcode/ECEN1310Final/Mifare_SERVO/Mifare_SERVO/main.c ****                     addNext = 0;
 510:/Users/kevinKuwata1/Documents/xcode/ECEN1310Final/Mifare_SERVO/Mifare_SERVO/main.c ****                 }
 511:/Users/kevinKuwata1/Documents/xcode/ECEN1310Final/Mifare_SERVO/Mifare_SERVO/main.c ****             } //end of for loop checking if what type of tag
 512:/Users/kevinKuwata1/Documents/xcode/ECEN1310Final/Mifare_SERVO/Mifare_SERVO/main.c ****             if(validCard == 1){
 1495               	.LM135:
 1496 02c0 8091 0000 		lds r24,validCard
 1497 02c4 9091 0000 		lds r25,validCard+1
 1498 02c8 0197      		sbiw r24,1
 1499 02ca 01F4      		brne .L56
 513:/Users/kevinKuwata1/Documents/xcode/ECEN1310Final/Mifare_SERVO/Mifare_SERVO/main.c ****                 LCDClear();
 1501               	.LM136:
 1502 02cc 60E0      		ldi r22,0
 1503 02ce 81E0      		ldi r24,lo8(1)
 1504 02d0 0E94 0000 		call LCDByte
 1505               	.LBB217:
 1506               	.LBB218:
 1508               	.Ltext53:
 187:/usr/local/Cellar/avr-gcc/6.2.0/avr/include/util/delay.h **** 
 1510               	.LM137:
 1511 02d4 FFEF      		ldi r31,lo8(799999)
 1512 02d6 24E3      		ldi r18,hi8(799999)
 1513 02d8 8CE0      		ldi r24,hlo8(799999)
 1514 02da F150      	1:	subi r31,1
 1515 02dc 2040      		sbci r18,0
 1516 02de 8040      		sbci r24,0
 1517 02e0 01F4      		brne 1b
 1518 02e2 00C0      		rjmp .
 1519 02e4 0000      		nop
 1520               	.LBE218:
 1521               	.LBE217:
 1523               	.Ltext54:
 514:/Users/kevinKuwata1/Documents/xcode/ECEN1310Final/Mifare_SERVO/Mifare_SERVO/main.c ****                 _delay_ms(500);
 515:/Users/kevinKuwata1/Documents/xcode/ECEN1310Final/Mifare_SERVO/Mifare_SERVO/main.c ****                 LCDWriteString("Access Granted");
 1525               	.LM138:
 1526 02e6 80E0      		ldi r24,lo8(.LC24)
 1527 02e8 90E0      		ldi r25,hi8(.LC24)
 1528 02ea 0E94 0000 		call LCDWriteString
 516:/Users/kevinKuwata1/Documents/xcode/ECEN1310Final/Mifare_SERVO/Mifare_SERVO/main.c ****                 open();
 1530               	.LM139:
 1531 02ee 0E94 0000 		call open
 517:/Users/kevinKuwata1/Documents/xcode/ECEN1310Final/Mifare_SERVO/Mifare_SERVO/main.c ****                 validCard=5;
 1533               	.LM140:
 1534 02f2 85E0      		ldi r24,lo8(5)
 1535 02f4 90E0      		ldi r25,0
 1536 02f6 9093 0000 		sts validCard+1,r25
 1537 02fa 8093 0000 		sts validCard,r24
 1538               	.LBB219:
 1539               	.LBB220:
 1541               	.Ltext55:
 187:/usr/local/Cellar/avr-gcc/6.2.0/avr/include/util/delay.h **** 
 1543               	.LM141:
 1544 02fe 9FEF      		ldi r25,lo8(1599999)
 1545 0300 E9E6      		ldi r30,hi8(1599999)
 1546 0302 F8E1      		ldi r31,hlo8(1599999)
 1547 0304 9150      	1:	subi r25,1
 1548 0306 E040      		sbci r30,0
 1549 0308 F040      		sbci r31,0
 1550 030a 01F4      		brne 1b
 1551 030c 00C0      		rjmp .
 1552 030e 0000      		nop
 1553               	.LBE220:
 1554               	.LBE219:
 1556               	.Ltext56:
 518:/Users/kevinKuwata1/Documents/xcode/ECEN1310Final/Mifare_SERVO/Mifare_SERVO/main.c ****                 deleteNext =0;
 519:/Users/kevinKuwata1/Documents/xcode/ECEN1310Final/Mifare_SERVO/Mifare_SERVO/main.c ****                 _delay_ms(1000);
 520:/Users/kevinKuwata1/Documents/xcode/ECEN1310Final/Mifare_SERVO/Mifare_SERVO/main.c ****                 close();
 1558               	.LM142:
 1559 0310 0E94 0000 		call close
 518:/Users/kevinKuwata1/Documents/xcode/ECEN1310Final/Mifare_SERVO/Mifare_SERVO/main.c ****                 deleteNext =0;
 1561               	.LM143:
 1562 0314 7801      		movw r14,r16
 1563               	.L56:
 521:/Users/kevinKuwata1/Documents/xcode/ECEN1310Final/Mifare_SERVO/Mifare_SERVO/main.c ****                 
 522:/Users/kevinKuwata1/Documents/xcode/ECEN1310Final/Mifare_SERVO/Mifare_SERVO/main.c ****             } //end if test worked
 523:/Users/kevinKuwata1/Documents/xcode/ECEN1310Final/Mifare_SERVO/Mifare_SERVO/main.c ****             if(validCard == -1 && addNext !=1){
 1565               	.LM144:
 1566 0316 8091 0000 		lds r24,validCard
 1567 031a 9091 0000 		lds r25,validCard+1
 1568 031e 0196      		adiw r24,1
 1569 0320 01F4      		brne .L47
 1571               	.LM145:
 1572 0322 81E0      		ldi r24,1
 1573 0324 A816      		cp r10,r24
 1574 0326 B104      		cpc r11,__zero_reg__
 1575 0328 01F0      		breq .L47
 524:/Users/kevinKuwata1/Documents/xcode/ECEN1310Final/Mifare_SERVO/Mifare_SERVO/main.c ****                 LCDClear();
 1577               	.LM146:
 1578 032a 60E0      		ldi r22,0
 1579 032c 81E0      		ldi r24,lo8(1)
 1580 032e 0E94 0000 		call LCDByte
 1581               	.LBB221:
 1582               	.LBB222:
 1584               	.Ltext57:
 187:/usr/local/Cellar/avr-gcc/6.2.0/avr/include/util/delay.h **** 
 1586               	.LM147:
 1587 0332 9FEF      		ldi r25,lo8(159999)
 1588 0334 E0E7      		ldi r30,hi8(159999)
 1589 0336 F2E0      		ldi r31,hlo8(159999)
 1590 0338 9150      	1:	subi r25,1
 1591 033a E040      		sbci r30,0
 1592 033c F040      		sbci r31,0
 1593 033e 01F4      		brne 1b
 1594 0340 00C0      		rjmp .
 1595 0342 0000      		nop
 1596               	.LBE222:
 1597               	.LBE221:
 1599               	.Ltext58:
 525:/Users/kevinKuwata1/Documents/xcode/ECEN1310Final/Mifare_SERVO/Mifare_SERVO/main.c ****                 _delay_ms(100);
 526:/Users/kevinKuwata1/Documents/xcode/ECEN1310Final/Mifare_SERVO/Mifare_SERVO/main.c ****                 LCDWriteString("Access Denied");
 1601               	.LM148:
 1602 0344 80E0      		ldi r24,lo8(.LC25)
 1603 0346 90E0      		ldi r25,hi8(.LC25)
 1604 0348 0E94 0000 		call LCDWriteString
 527:/Users/kevinKuwata1/Documents/xcode/ECEN1310Final/Mifare_SERVO/Mifare_SERVO/main.c ****                 //close();
 528:/Users/kevinKuwata1/Documents/xcode/ECEN1310Final/Mifare_SERVO/Mifare_SERVO/main.c ****                 validTag(-1);
 1606               	.LM149:
 1607 034c 8FEF      		ldi r24,lo8(-1)
 1608 034e 9FEF      		ldi r25,lo8(-1)
 1609 0350 0E94 0000 		call validTag
 1610               	.LBB223:
 1611               	.LBB224:
 1613               	.Ltext59:
 187:/usr/local/Cellar/avr-gcc/6.2.0/avr/include/util/delay.h **** 
 1615               	.LM150:
 1616 0354 2FEF      		ldi r18,lo8(159999)
 1617 0356 80E7      		ldi r24,hi8(159999)
 1618 0358 92E0      		ldi r25,hlo8(159999)
 1619 035a 2150      	1:	subi r18,1
 1620 035c 8040      		sbci r24,0
 1621 035e 9040      		sbci r25,0
 1622 0360 01F4      		brne 1b
 1623 0362 00C0      		rjmp .
 1624 0364 0000      		nop
 1625               	.L47:
 1626               	.LBE224:
 1627               	.LBE223:
 1628               	.LBE243:
 1630               	.Ltext60:
 529:/Users/kevinKuwata1/Documents/xcode/ECEN1310Final/Mifare_SERVO/Mifare_SERVO/main.c ****                 _delay_ms(100);
 530:/Users/kevinKuwata1/Documents/xcode/ECEN1310Final/Mifare_SERVO/Mifare_SERVO/main.c ****             } //end of loop for checking valid card
 531:/Users/kevinKuwata1/Documents/xcode/ECEN1310Final/Mifare_SERVO/Mifare_SERVO/main.c ****             
 532:/Users/kevinKuwata1/Documents/xcode/ECEN1310Final/Mifare_SERVO/Mifare_SERVO/main.c ****             if(card_display_Delay ==1){
 533:/Users/kevinKuwata1/Documents/xcode/ECEN1310Final/Mifare_SERVO/Mifare_SERVO/main.c ****                 _delay_ms(750);
 534:/Users/kevinKuwata1/Documents/xcode/ECEN1310Final/Mifare_SERVO/Mifare_SERVO/main.c ****                 LCDClear();
 535:/Users/kevinKuwata1/Documents/xcode/ECEN1310Final/Mifare_SERVO/Mifare_SERVO/main.c ****                 LCDWriteString("CHECKED");
 536:/Users/kevinKuwata1/Documents/xcode/ECEN1310Final/Mifare_SERVO/Mifare_SERVO/main.c ****                 _delay_ms(250);
 537:/Users/kevinKuwata1/Documents/xcode/ECEN1310Final/Mifare_SERVO/Mifare_SERVO/main.c ****                 LCDClear();
 538:/Users/kevinKuwata1/Documents/xcode/ECEN1310Final/Mifare_SERVO/Mifare_SERVO/main.c ****             }
 539:/Users/kevinKuwata1/Documents/xcode/ECEN1310Final/Mifare_SERVO/Mifare_SERVO/main.c ****             
 540:/Users/kevinKuwata1/Documents/xcode/ECEN1310Final/Mifare_SERVO/Mifare_SERVO/main.c ****         } //end of valid card found
 541:/Users/kevinKuwata1/Documents/xcode/ECEN1310Final/Mifare_SERVO/Mifare_SERVO/main.c ****         
 542:/Users/kevinKuwata1/Documents/xcode/ECEN1310Final/Mifare_SERVO/Mifare_SERVO/main.c ****         LCDWriteStringXY(0,0,"Present Tag");
 1632               	.LM151:
 1633 0366 60E0      		ldi r22,0
 1634 0368 80E0      		ldi r24,0
 1635 036a 0E94 0000 		call LCDGotoXY
 1636 036e 80E0      		ldi r24,lo8(.LC26)
 1637 0370 90E0      		ldi r25,hi8(.LC26)
 1638 0372 0E94 0000 		call LCDWriteString
 302:/Users/kevinKuwata1/Documents/xcode/ECEN1310Final/Mifare_SERVO/Mifare_SERVO/main.c ****         byte = mfrc522_request(PICC_REQALL,str);
 1640               	.LM152:
 1641 0376 8501      		movw r16,r10
 1642 0378 00C0      		rjmp .L57
 1643               	.L34:
 310:/Users/kevinKuwata1/Documents/xcode/ECEN1310Final/Mifare_SERVO/Mifare_SERVO/main.c ****             LCDWriteString("delete tag acivated");
 1645               	.LM153:
 1646 037a 60E0      		ldi r22,0
 1647 037c 81E0      		ldi r24,lo8(1)
 1648 037e 0E94 0000 		call LCDByte
 311:/Users/kevinKuwata1/Documents/xcode/ECEN1310Final/Mifare_SERVO/Mifare_SERVO/main.c ****             _delay_ms(800);
 1650               	.LM154:
 1651 0382 80E0      		ldi r24,lo8(.LC4)
 1652 0384 90E0      		ldi r25,hi8(.LC4)
 1653 0386 0E94 0000 		call LCDWriteString
 1654               	.LBB244:
 1655               	.LBB245:
 1657               	.Ltext61:
 187:/usr/local/Cellar/avr-gcc/6.2.0/avr/include/util/delay.h **** 
 1659               	.LM155:
 1660 038a EFEF      		ldi r30,lo8(1279999)
 1661 038c F7E8      		ldi r31,hi8(1279999)
 1662 038e 23E1      		ldi r18,hlo8(1279999)
 1663 0390 E150      	1:	subi r30,1
 1664 0392 F040      		sbci r31,0
 1665 0394 2040      		sbci r18,0
 1666 0396 01F4      		brne 1b
 1667 0398 00C0      		rjmp .
 1668 039a 0000      		nop
 1669               	.LBE245:
 1670               	.LBE244:
 1672               	.Ltext62:
 313:/Users/kevinKuwata1/Documents/xcode/ECEN1310Final/Mifare_SERVO/Mifare_SERVO/main.c ****             LCDClear();
 1674               	.LM156:
 1675 039c BE01      		movw r22,r28
 1676 039e 6F5F      		subi r22,-1
 1677 03a0 7F4F      		sbci r23,-1
 1678 03a2 82E5      		ldi r24,lo8(82)
 1679 03a4 0E94 0000 		call mfrc522_request
 314:/Users/kevinKuwata1/Documents/xcode/ECEN1310Final/Mifare_SERVO/Mifare_SERVO/main.c ****             LCDWriteString("Scan again to ");
 1681               	.LM157:
 1682 03a8 60E0      		ldi r22,0
 1683 03aa 81E0      		ldi r24,lo8(1)
 1684 03ac 0E94 0000 		call LCDByte
 315:/Users/kevinKuwata1/Documents/xcode/ECEN1310Final/Mifare_SERVO/Mifare_SERVO/main.c ****             LCDWriteStringXY(0, 1, "delete all tags.");
 1686               	.LM158:
 1687 03b0 80E0      		ldi r24,lo8(.LC5)
 1688 03b2 90E0      		ldi r25,hi8(.LC5)
 1689 03b4 0E94 0000 		call LCDWriteString
 316:/Users/kevinKuwata1/Documents/xcode/ECEN1310Final/Mifare_SERVO/Mifare_SERVO/main.c ****             byte = mfrc522_request(PICC_REQALL,str);
 1691               	.LM159:
 1692 03b8 61E0      		ldi r22,lo8(1)
 1693 03ba 80E0      		ldi r24,0
 1694 03bc 0E94 0000 		call LCDGotoXY
 1695 03c0 80E0      		ldi r24,lo8(.LC6)
 1696 03c2 90E0      		ldi r25,hi8(.LC6)
 1697 03c4 0E94 0000 		call LCDWriteString
 317:/Users/kevinKuwata1/Documents/xcode/ECEN1310Final/Mifare_SERVO/Mifare_SERVO/main.c ****             if(byte == CARD_FOUND)
 1699               	.LM160:
 1700 03c8 BE01      		movw r22,r28
 1701 03ca 6F5F      		subi r22,-1
 1702 03cc 7F4F      		sbci r23,-1
 1703 03ce 82E5      		ldi r24,lo8(82)
 1704 03d0 0E94 0000 		call mfrc522_request
 318:/Users/kevinKuwata1/Documents/xcode/ECEN1310Final/Mifare_SERVO/Mifare_SERVO/main.c ****             {
 1706               	.LM161:
 1707 03d4 8130      		cpi r24,lo8(1)
 1708 03d6 01F0      		breq .+2
 1709 03d8 00C0      		rjmp .L30
 1710               	.LBB246:
 320:/Users/kevinKuwata1/Documents/xcode/ECEN1310Final/Mifare_SERVO/Mifare_SERVO/main.c ****                 if(byte == CARD_FOUND)
 1712               	.LM162:
 1713 03da CE01      		movw r24,r28
 1714 03dc 0196      		adiw r24,1
 1715 03de 0E94 0000 		call mfrc522_get_card_serial
 321:/Users/kevinKuwata1/Documents/xcode/ECEN1310Final/Mifare_SERVO/Mifare_SERVO/main.c ****                 {
 1717               	.LM163:
 1718 03e2 8130      		cpi r24,lo8(1)
 1719 03e4 01F0      		breq .+2
 1720 03e6 00C0      		rjmp .L30
 1721 03e8 FE01      		movw r30,r28
 1722 03ea 3196      		adiw r30,1
 1723 03ec A0E0      		ldi r26,lo8(DELETE)
 1724 03ee B0E0      		ldi r27,hi8(DELETE)
 1725               	.L32:
 1726               	.LBB202:
 329:/Users/kevinKuwata1/Documents/xcode/ECEN1310Final/Mifare_SERVO/Mifare_SERVO/main.c ****                             deleteNext =1;//duplicate
 1728               	.LM164:
 1729 03f0 9191      		ld r25,Z+
 1730 03f2 8D91      		ld r24,X+
 328:/Users/kevinKuwata1/Documents/xcode/ECEN1310Final/Mifare_SERVO/Mifare_SERVO/main.c ****                         if(str[i] == DELETE[i]){
 1732               	.LM165:
 1733 03f4 E815      		cp r30,r8
 1734 03f6 F905      		cpc r31,r9
 1735 03f8 01F4      		brne .L32
 1736               	.LBE202:
 336:/Users/kevinKuwata1/Documents/xcode/ECEN1310Final/Mifare_SERVO/Mifare_SERVO/main.c ****                         LCDClear();
 1738               	.LM166:
 1739 03fa 9813      		cpse r25,r24
 1740 03fc 00C0      		rjmp .L58
 337:/Users/kevinKuwata1/Documents/xcode/ECEN1310Final/Mifare_SERVO/Mifare_SERVO/main.c ****                         LCDWriteString("Removing Tags");
 1742               	.LM167:
 1743 03fe 60E0      		ldi r22,0
 1744 0400 81E0      		ldi r24,lo8(1)
 1745 0402 0E94 0000 		call LCDByte
 338:/Users/kevinKuwata1/Documents/xcode/ECEN1310Final/Mifare_SERVO/Mifare_SERVO/main.c ****                         _delay_ms(1000);
 1747               	.LM168:
 1748 0406 80E0      		ldi r24,lo8(.LC7)
 1749 0408 90E0      		ldi r25,hi8(.LC7)
 1750 040a 0E94 0000 		call LCDWriteString
 1751               	.LBB203:
 1752               	.LBB204:
 1754               	.Ltext63:
 187:/usr/local/Cellar/avr-gcc/6.2.0/avr/include/util/delay.h **** 
 1756               	.LM169:
 1757 040e 8FEF      		ldi r24,lo8(1599999)
 1758 0410 99E6      		ldi r25,hi8(1599999)
 1759 0412 E8E1      		ldi r30,hlo8(1599999)
 1760 0414 8150      	1:	subi r24,1
 1761 0416 9040      		sbci r25,0
 1762 0418 E040      		sbci r30,0
 1763 041a 01F4      		brne 1b
 1764 041c 00C0      		rjmp .
 1765 041e 0000      		nop
 1766 0420 F0E0      		ldi r31,lo8(tag1)
 1767 0422 EF2E      		mov r14,r31
 1768 0424 F0E0      		ldi r31,hi8(tag1)
 1769 0426 FF2E      		mov r15,r31
 1770 0428 A0E0      		ldi r26,lo8(tag2)
 1771 042a CA2E      		mov r12,r26
 1772 042c A0E0      		ldi r26,hi8(tag2)
 1773 042e DA2E      		mov r13,r26
 1774               	.L33:
 1775               	.LBE204:
 1776               	.LBE203:
 1777               	.LBB205:
 1779               	.Ltext64:
 341:/Users/kevinKuwata1/Documents/xcode/ECEN1310Final/Mifare_SERVO/Mifare_SERVO/main.c ****                             write_eeprom_word(tag2[i], 0);
 1781               	.LM170:
 1782 0430 F701      		movw r30,r14
 1783 0432 8191      		ld r24,Z+
 1784 0434 7F01      		movw r14,r30
 1785 0436 60E0      		ldi r22,0
 1786 0438 70E0      		ldi r23,0
 1787 043a 90E0      		ldi r25,0
 1788 043c 0E94 0000 		call eeprom_write_word
 342:/Users/kevinKuwata1/Documents/xcode/ECEN1310Final/Mifare_SERVO/Mifare_SERVO/main.c ****                         }
 1790               	.LM171:
 1791 0440 F601      		movw r30,r12
 1792 0442 8191      		ld r24,Z+
 1793 0444 6F01      		movw r12,r30
 1794 0446 60E0      		ldi r22,0
 1795 0448 70E0      		ldi r23,0
 1796 044a 90E0      		ldi r25,0
 1797 044c 0E94 0000 		call eeprom_write_word
 340:/Users/kevinKuwata1/Documents/xcode/ECEN1310Final/Mifare_SERVO/Mifare_SERVO/main.c ****                             write_eeprom_word(tag1[i], 0);
 1799               	.LM172:
 1800 0450 80E0      		ldi r24,lo8(tag1+5)
 1801 0452 90E0      		ldi r25,hi8(tag1+5)
 1802 0454 8E15      		cp r24,r14
 1803 0456 9F05      		cpc r25,r15
 1804 0458 01F4      		brne .L33
 1805               	.LBE205:
 344:/Users/kevinKuwata1/Documents/xcode/ECEN1310Final/Mifare_SERVO/Mifare_SERVO/main.c ****                         deleteNext =0;
 1807               	.LM173:
 1808 045a 5092 0000 		sts tagNumber+1,r5
 1809 045e 4092 0000 		sts tagNumber,r4
 346:/Users/kevinKuwata1/Documents/xcode/ECEN1310Final/Mifare_SERVO/Mifare_SERVO/main.c ****                         LCDWriteString("Tags Erased");
 1811               	.LM174:
 1812 0462 60E0      		ldi r22,0
 1813 0464 81E0      		ldi r24,lo8(1)
 1814 0466 0E94 0000 		call LCDByte
 347:/Users/kevinKuwata1/Documents/xcode/ECEN1310Final/Mifare_SERVO/Mifare_SERVO/main.c ****                         _delay_ms(300);
 1816               	.LM175:
 1817 046a 80E0      		ldi r24,lo8(.LC8)
 1818 046c 90E0      		ldi r25,hi8(.LC8)
 1819 046e 0E94 0000 		call LCDWriteString
 1820               	.LBB206:
 1821               	.LBB207:
 1823               	.Ltext65:
 187:/usr/local/Cellar/avr-gcc/6.2.0/avr/include/util/delay.h **** 
 1825               	.LM176:
 1826 0472 9FEF      		ldi r25,lo8(479999)
 1827 0474 E2E5      		ldi r30,hi8(479999)
 1828 0476 F7E0      		ldi r31,hlo8(479999)
 1829 0478 9150      	1:	subi r25,1
 1830 047a E040      		sbci r30,0
 1831 047c F040      		sbci r31,0
 1832 047e 01F4      		brne 1b
 1833 0480 00C0      		rjmp .
 1834 0482 0000      		nop
 1835               	.LBE207:
 1836               	.LBE206:
 1838               	.Ltext66:
 349:/Users/kevinKuwata1/Documents/xcode/ECEN1310Final/Mifare_SERVO/Mifare_SERVO/main.c ****                         
 1840               	.LM177:
 1841 0484 5092 0000 		sts tagNumber+1,r5
 1842 0488 4092 0000 		sts tagNumber,r4
 1843               	.L58:
 352:/Users/kevinKuwata1/Documents/xcode/ECEN1310Final/Mifare_SERVO/Mifare_SERVO/main.c ****                     // addNext =0;
 1845               	.LM178:
 1846 048c E12C      		mov r14,__zero_reg__
 1847 048e F12C      		mov r15,__zero_reg__
 1848               	.L30:
 1849               	.LBE246:
 356:/Users/kevinKuwata1/Documents/xcode/ECEN1310Final/Mifare_SERVO/Mifare_SERVO/main.c ****             byte = mfrc522_request(PICC_REQALL,str);
 1851               	.LM179:
 1852 0490 0E94 0000 		call loadTags
 357:/Users/kevinKuwata1/Documents/xcode/ECEN1310Final/Mifare_SERVO/Mifare_SERVO/main.c ****         }//end of delete next
 1854               	.LM180:
 1855 0494 BE01      		movw r22,r28
 1856 0496 6F5F      		subi r22,-1
 1857 0498 7F4F      		sbci r23,-1
 1858 049a 82E5      		ldi r24,lo8(82)
 1859 049c 0E94 0000 		call mfrc522_request
 1860 04a0 D82E      		mov r13,r24
 1861 04a2 00C0      		rjmp .L28
 1862               	.L46:
 361:/Users/kevinKuwata1/Documents/xcode/ECEN1310Final/Mifare_SERVO/Mifare_SERVO/main.c ****             PORTC ^= BV(ledR);
 1864               	.LM181:
 1865 04a4 429A      		sbi 0x8,2
 362:/Users/kevinKuwata1/Documents/xcode/ECEN1310Final/Mifare_SERVO/Mifare_SERVO/main.c **** 
 1867               	.LM182:
 1868 04a6 88B1      		in r24,0x8
 1869 04a8 8B25      		eor r24,r11
 1870 04aa 88B9      		out 0x8,r24
 1871               	.LBB247:
 1872               	.LBB248:
 1874               	.Ltext67:
 187:/usr/local/Cellar/avr-gcc/6.2.0/avr/include/util/delay.h **** 
 1876               	.LM183:
 1877 04ac 8FE7      		ldi r24,lo8(79999)
 1878 04ae 98E3      		ldi r25,hi8(79999)
 1879 04b0 E1E0      		ldi r30,hlo8(79999)
 1880 04b2 8150      	1:	subi r24,1
 1881 04b4 9040      		sbci r25,0
 1882 04b6 E040      		sbci r30,0
 1883 04b8 01F4      		brne 1b
 1884 04ba 00C0      		rjmp .
 1885 04bc 0000      		nop
 1886               	.LBE248:
 1887               	.LBE247:
 1889               	.Ltext68:
 365:/Users/kevinKuwata1/Documents/xcode/ECEN1310Final/Mifare_SERVO/Mifare_SERVO/main.c ****             PORTC |= BV(ledR);
 1891               	.LM184:
 1892 04be 88B1      		in r24,0x8
 1893 04c0 8A25      		eor r24,r10
 1894 04c2 88B9      		out 0x8,r24
 366:/Users/kevinKuwata1/Documents/xcode/ECEN1310Final/Mifare_SERVO/Mifare_SERVO/main.c **** 
 1896               	.LM185:
 1897 04c4 419A      		sbi 0x8,1
 1898               	.LBB249:
 1899               	.LBB250:
 1901               	.Ltext69:
 187:/usr/local/Cellar/avr-gcc/6.2.0/avr/include/util/delay.h **** 
 1903               	.LM186:
 1904 04c6 FFE7      		ldi r31,lo8(79999)
 1905 04c8 28E3      		ldi r18,hi8(79999)
 1906 04ca 81E0      		ldi r24,hlo8(79999)
 1907 04cc F150      	1:	subi r31,1
 1908 04ce 2040      		sbci r18,0
 1909 04d0 8040      		sbci r24,0
 1910 04d2 01F4      		brne 1b
 1911 04d4 00C0      		rjmp .
 1912 04d6 0000      		nop
 1913               	.LBE250:
 1914               	.LBE249:
 1916               	.Ltext70:
 373:/Users/kevinKuwata1/Documents/xcode/ECEN1310Final/Mifare_SERVO/Mifare_SERVO/main.c ****             LCDClear();
 1918               	.LM187:
 1919 04d8 BE01      		movw r22,r28
 1920 04da 6F5F      		subi r22,-1
 1921 04dc 7F4F      		sbci r23,-1
 1922 04de 82E5      		ldi r24,lo8(82)
 1923 04e0 0E94 0000 		call mfrc522_request
 374:/Users/kevinKuwata1/Documents/xcode/ECEN1310Final/Mifare_SERVO/Mifare_SERVO/main.c ****             LCDWriteString("Scan tag to ");
 1925               	.LM188:
 1926 04e4 60E0      		ldi r22,0
 1927 04e6 81E0      		ldi r24,lo8(1)
 1928 04e8 0E94 0000 		call LCDByte
 375:/Users/kevinKuwata1/Documents/xcode/ECEN1310Final/Mifare_SERVO/Mifare_SERVO/main.c ****             LCDWriteStringXY(0, 1, "be added.");
 1930               	.LM189:
 1931 04ec 80E0      		ldi r24,lo8(.LC9)
 1932 04ee 90E0      		ldi r25,hi8(.LC9)
 1933 04f0 0E94 0000 		call LCDWriteString
 376:/Users/kevinKuwata1/Documents/xcode/ECEN1310Final/Mifare_SERVO/Mifare_SERVO/main.c ****             byte = mfrc522_request(PICC_REQALL,str);
 1935               	.LM190:
 1936 04f4 61E0      		ldi r22,lo8(1)
 1937 04f6 80E0      		ldi r24,0
 1938 04f8 0E94 0000 		call LCDGotoXY
 1939 04fc 80E0      		ldi r24,lo8(.LC10)
 1940 04fe 90E0      		ldi r25,hi8(.LC10)
 1941 0500 0E94 0000 		call LCDWriteString
 377:/Users/kevinKuwata1/Documents/xcode/ECEN1310Final/Mifare_SERVO/Mifare_SERVO/main.c ****             
 1943               	.LM191:
 1944 0504 BE01      		movw r22,r28
 1945 0506 6F5F      		subi r22,-1
 1946 0508 7F4F      		sbci r23,-1
 1947 050a 82E5      		ldi r24,lo8(82)
 1948 050c 0E94 0000 		call mfrc522_request
 1949 0510 D82E      		mov r13,r24
 379:/Users/kevinKuwata1/Documents/xcode/ECEN1310Final/Mifare_SERVO/Mifare_SERVO/main.c ****             {
 1951               	.LM192:
 1952 0512 8091 0000 		lds r24,tagNumber
 1953 0516 9091 0000 		lds r25,tagNumber+1
 1954 051a 0397      		sbiw r24,3
 1955 051c 04F0      		brlt .L36
 382:/Users/kevinKuwata1/Documents/xcode/ECEN1310Final/Mifare_SERVO/Mifare_SERVO/main.c ****                 LCDClear();
 1957               	.LM193:
 1958 051e E3E0      		ldi r30,lo8(3)
 1959 0520 F0E0      		ldi r31,0
 1960 0522 F093 0000 		sts tagNumber+1,r31
 1961 0526 E093 0000 		sts tagNumber,r30
 383:/Users/kevinKuwata1/Documents/xcode/ECEN1310Final/Mifare_SERVO/Mifare_SERVO/main.c ****                 LCDWriteStringXY(0,0, "EEPROM Tag Slots");
 1963               	.LM194:
 1964 052a 60E0      		ldi r22,0
 1965 052c 81E0      		ldi r24,lo8(1)
 1966 052e 0E94 0000 		call LCDByte
 384:/Users/kevinKuwata1/Documents/xcode/ECEN1310Final/Mifare_SERVO/Mifare_SERVO/main.c ****                 LCDWriteStringXY(0,1,"Full");
 1968               	.LM195:
 1969 0532 60E0      		ldi r22,0
 1970 0534 80E0      		ldi r24,0
 1971 0536 0E94 0000 		call LCDGotoXY
 1972 053a 80E0      		ldi r24,lo8(.LC11)
 1973 053c 90E0      		ldi r25,hi8(.LC11)
 1974 053e 0E94 0000 		call LCDWriteString
 385:/Users/kevinKuwata1/Documents/xcode/ECEN1310Final/Mifare_SERVO/Mifare_SERVO/main.c ****                 _delay_ms(1000);
 1976               	.LM196:
 1977 0542 61E0      		ldi r22,lo8(1)
 1978 0544 80E0      		ldi r24,0
 1979 0546 0E94 0000 		call LCDGotoXY
 1980 054a 80E0      		ldi r24,lo8(.LC12)
 1981 054c 90E0      		ldi r25,hi8(.LC12)
 1982 054e 0E94 0000 		call LCDWriteString
 1983               	.LBB251:
 1984               	.LBB252:
 1986               	.Ltext71:
 187:/usr/local/Cellar/avr-gcc/6.2.0/avr/include/util/delay.h **** 
 1988               	.LM197:
 1989 0552 FFEF      		ldi r31,lo8(1599999)
 1990 0554 29E6      		ldi r18,hi8(1599999)
 1991 0556 88E1      		ldi r24,hlo8(1599999)
 1992 0558 F150      	1:	subi r31,1
 1993 055a 2040      		sbci r18,0
 1994 055c 8040      		sbci r24,0
 1995 055e 01F4      		brne 1b
 1996 0560 00C0      		rjmp .
 1997 0562 0000      		nop
 1998               	.LBE252:
 1999               	.LBE251:
 2001               	.Ltext72:
 381:/Users/kevinKuwata1/Documents/xcode/ECEN1310Final/Mifare_SERVO/Mifare_SERVO/main.c ****                 tagNumber =3;
 2003               	.LM198:
 2004 0564 8701      		movw r16,r14
 2005               	.L36:
 389:/Users/kevinKuwata1/Documents/xcode/ECEN1310Final/Mifare_SERVO/Mifare_SERVO/main.c ****             {
 2007               	.LM199:
 2008 0566 91E0      		ldi r25,lo8(1)
 2009 0568 D912      		cpse r13,r25
 2010 056a 00C0      		rjmp .L37
 2011               	.LBB253:
 391:/Users/kevinKuwata1/Documents/xcode/ECEN1310Final/Mifare_SERVO/Mifare_SERVO/main.c ****                 if(byte == CARD_FOUND)
 2013               	.LM200:
 2014 056c CE01      		movw r24,r28
 2015 056e 0196      		adiw r24,1
 2016 0570 0E94 0000 		call mfrc522_get_card_serial
 392:/Users/kevinKuwata1/Documents/xcode/ECEN1310Final/Mifare_SERVO/Mifare_SERVO/main.c ****                 {
 2018               	.LM201:
 2019 0574 8130      		cpi r24,lo8(1)
 2020 0576 01F0      		breq .+2
 2021 0578 00C0      		rjmp .L37
 2022 057a 6701      		movw r12,r14
 2023               	.L42:
 2024               	.LBB227:
 395:/Users/kevinKuwata1/Documents/xcode/ECEN1310Final/Mifare_SERVO/Mifare_SERVO/main.c ****                             LCDClear();
 2026               	.LM202:
 2027 057c E1E0      		ldi r30,lo8(1)
 2028 057e F0E0      		ldi r31,0
 2029 0580 EC0F      		add r30,r28
 2030 0582 FD1F      		adc r31,r29
 2031 0584 EC0D      		add r30,r12
 2032 0586 FD1D      		adc r31,r13
 2033 0588 8081      		ld r24,Z
 2034 058a F601      		movw r30,r12
 2035 058c E050      		subi r30,lo8(-(ram_tag1))
 2036 058e F040      		sbci r31,hi8(-(ram_tag1))
 2037 0590 9081      		ld r25,Z
 2038 0592 8917      		cp r24,r25
 2039 0594 01F0      		breq .L38
 395:/Users/kevinKuwata1/Documents/xcode/ECEN1310Final/Mifare_SERVO/Mifare_SERVO/main.c ****                             LCDClear();
 2041               	.LM203:
 2042 0596 F601      		movw r30,r12
 2043 0598 E050      		subi r30,lo8(-(ram_tag2))
 2044 059a F040      		sbci r31,hi8(-(ram_tag2))
 2045 059c 9081      		ld r25,Z
 2046 059e 8913      		cpse r24,r25
 2047 05a0 00C0      		rjmp .L39
 2048               	.L38:
 396:/Users/kevinKuwata1/Documents/xcode/ECEN1310Final/Mifare_SERVO/Mifare_SERVO/main.c ****                             LCDWriteStringXY(0,0, "Error 3:");
 2050               	.LM204:
 2051 05a2 60E0      		ldi r22,0
 2052 05a4 81E0      		ldi r24,lo8(1)
 2053 05a6 0E94 0000 		call LCDByte
 397:/Users/kevinKuwata1/Documents/xcode/ECEN1310Final/Mifare_SERVO/Mifare_SERVO/main.c ****                             LCDWriteString("Tag already");
 2055               	.LM205:
 2056 05aa 60E0      		ldi r22,0
 2057 05ac 80E0      		ldi r24,0
 2058 05ae 0E94 0000 		call LCDGotoXY
 2059 05b2 80E0      		ldi r24,lo8(.LC13)
 2060 05b4 90E0      		ldi r25,hi8(.LC13)
 2061 05b6 0E94 0000 		call LCDWriteString
 398:/Users/kevinKuwata1/Documents/xcode/ECEN1310Final/Mifare_SERVO/Mifare_SERVO/main.c ****                             LCDWriteStringXY(0,1, "stored");
 2063               	.LM206:
 2064 05ba 80E0      		ldi r24,lo8(.LC14)
 2065 05bc 90E0      		ldi r25,hi8(.LC14)
 2066 05be 0E94 0000 		call LCDWriteString
 399:/Users/kevinKuwata1/Documents/xcode/ECEN1310Final/Mifare_SERVO/Mifare_SERVO/main.c ****                             _delay_ms(2000);
 2068               	.LM207:
 2069 05c2 61E0      		ldi r22,lo8(1)
 2070 05c4 80E0      		ldi r24,0
 2071 05c6 0E94 0000 		call LCDGotoXY
 2072 05ca 80E0      		ldi r24,lo8(.LC15)
 2073 05cc 90E0      		ldi r25,hi8(.LC15)
 2074 05ce 0E94 0000 		call LCDWriteString
 2075               	.LBB228:
 2076               	.LBB229:
 2078               	.Ltext73:
 187:/usr/local/Cellar/avr-gcc/6.2.0/avr/include/util/delay.h **** 
 2080               	.LM208:
 2081 05d2 EFEF      		ldi r30,lo8(3199999)
 2082 05d4 F3ED      		ldi r31,hi8(3199999)
 2083 05d6 20E3      		ldi r18,hlo8(3199999)
 2084 05d8 E150      	1:	subi r30,1
 2085 05da F040      		sbci r31,0
 2086 05dc 2040      		sbci r18,0
 2087 05de 01F4      		brne 1b
 2088 05e0 00C0      		rjmp .
 2089 05e2 0000      		nop
 2090               	.LBE229:
 2091               	.LBE228:
 2093               	.Ltext74:
 401:/Users/kevinKuwata1/Documents/xcode/ECEN1310Final/Mifare_SERVO/Mifare_SERVO/main.c ****                             i =5;
 2095               	.LM209:
 2096 05e4 8701      		movw r16,r14
 402:/Users/kevinKuwata1/Documents/xcode/ECEN1310Final/Mifare_SERVO/Mifare_SERVO/main.c ****                             //not likely to happen but it could
 2098               	.LM210:
 2099 05e6 65E0      		ldi r22,lo8(5)
 2100 05e8 C62E      		mov r12,r22
 2101 05ea D12C      		mov r13,__zero_reg__
 2102               	.L39:
 405:/Users/kevinKuwata1/Documents/xcode/ECEN1310Final/Mifare_SERVO/Mifare_SERVO/main.c ****                                 LCDClear();
 2104               	.LM211:
 2105 05ec E1E0      		ldi r30,lo8(1)
 2106 05ee F0E0      		ldi r31,0
 2107 05f0 EC0F      		add r30,r28
 2108 05f2 FD1F      		adc r31,r29
 2109 05f4 EC0D      		add r30,r12
 2110 05f6 FD1D      		adc r31,r13
 2111 05f8 9081      		ld r25,Z
 2112 05fa F601      		movw r30,r12
 2113 05fc E050      		subi r30,lo8(-(ADD))
 2114 05fe F040      		sbci r31,hi8(-(ADD))
 2115 0600 8081      		ld r24,Z
 406:/Users/kevinKuwata1/Documents/xcode/ECEN1310Final/Mifare_SERVO/Mifare_SERVO/main.c ****                                 LCDWriteString("Error 1:");
 2117               	.LM212:
 2118 0602 60E0      		ldi r22,0
 405:/Users/kevinKuwata1/Documents/xcode/ECEN1310Final/Mifare_SERVO/Mifare_SERVO/main.c ****                                 LCDClear();
 2120               	.LM213:
 2121 0604 9813      		cpse r25,r24
 2122 0606 00C0      		rjmp .L40
 406:/Users/kevinKuwata1/Documents/xcode/ECEN1310Final/Mifare_SERVO/Mifare_SERVO/main.c ****                                 LCDWriteString("Error 1:");
 2124               	.LM214:
 2125 0608 81E0      		ldi r24,lo8(1)
 2126 060a 0E94 0000 		call LCDByte
 407:/Users/kevinKuwata1/Documents/xcode/ECEN1310Final/Mifare_SERVO/Mifare_SERVO/main.c ****                             LCDWriteStringXY(0,1,"attempting to");
 2128               	.LM215:
 2129 060e 80E0      		ldi r24,lo8(.LC16)
 2130 0610 90E0      		ldi r25,hi8(.LC16)
 2131 0612 0E94 0000 		call LCDWriteString
 408:/Users/kevinKuwata1/Documents/xcode/ECEN1310Final/Mifare_SERVO/Mifare_SERVO/main.c ****                             _delay_ms(1000);
 2133               	.LM216:
 2134 0616 61E0      		ldi r22,lo8(1)
 2135 0618 80E0      		ldi r24,0
 2136 061a 0E94 0000 		call LCDGotoXY
 2137 061e 80E0      		ldi r24,lo8(.LC17)
 2138 0620 90E0      		ldi r25,hi8(.LC17)
 2139 0622 0E94 0000 		call LCDWriteString
 2140               	.LBB230:
 2141               	.LBB231:
 2143               	.Ltext75:
 187:/usr/local/Cellar/avr-gcc/6.2.0/avr/include/util/delay.h **** 
 2145               	.LM217:
 2146 0626 8FEF      		ldi r24,lo8(1599999)
 2147 0628 99E6      		ldi r25,hi8(1599999)
 2148 062a E8E1      		ldi r30,hlo8(1599999)
 2149 062c 8150      	1:	subi r24,1
 2150 062e 9040      		sbci r25,0
 2151 0630 E040      		sbci r30,0
 2152 0632 01F4      		brne 1b
 2153 0634 00C0      		rjmp .
 2154 0636 0000      		nop
 2155               	.LBE231:
 2156               	.LBE230:
 2158               	.Ltext76:
 410:/Users/kevinKuwata1/Documents/xcode/ECEN1310Final/Mifare_SERVO/Mifare_SERVO/main.c ****                             _delay_ms(1000);
 2160               	.LM218:
 2161 0638 61E0      		ldi r22,lo8(1)
 2162 063a 80E0      		ldi r24,0
 2163 063c 0E94 0000 		call LCDGotoXY
 2164 0640 80E0      		ldi r24,lo8(.LC18)
 2165 0642 90E0      		ldi r25,hi8(.LC18)
 2166 0644 0E94 0000 		call LCDWriteString
 2167               	.LBB232:
 2168               	.LBB233:
 2170               	.Ltext77:
 187:/usr/local/Cellar/avr-gcc/6.2.0/avr/include/util/delay.h **** 
 2172               	.LM219:
 2173 0648 FFEF      		ldi r31,lo8(1599999)
 2174 064a 29E6      		ldi r18,hi8(1599999)
 2175 064c 88E1      		ldi r24,hlo8(1599999)
 2176 064e F150      	1:	subi r31,1
 2177 0650 2040      		sbci r18,0
 2178 0652 8040      		sbci r24,0
 2179 0654 01F4      		brne 1b
 2180 0656 00C0      		rjmp .
 2181 0658 0000      		nop
 2182               	.LBE233:
 2183               	.LBE232:
 2185               	.Ltext78:
 412:/Users/kevinKuwata1/Documents/xcode/ECEN1310Final/Mifare_SERVO/Mifare_SERVO/main.c ****                             _delay_ms(1000);
 2187               	.LM220:
 2188 065a 61E0      		ldi r22,lo8(1)
 2189 065c 80E0      		ldi r24,0
 2190 065e 0E94 0000 		call LCDGotoXY
 2191 0662 80E0      		ldi r24,lo8(.LC19)
 2192 0664 90E0      		ldi r25,hi8(.LC19)
 2193 0666 0E94 0000 		call LCDWriteString
 2194               	.LBB234:
 2195               	.LBB235:
 2197               	.Ltext79:
 187:/usr/local/Cellar/avr-gcc/6.2.0/avr/include/util/delay.h **** 
 2199               	.LM221:
 2200 066a 9FEF      		ldi r25,lo8(1599999)
 2201 066c E9E6      		ldi r30,hi8(1599999)
 2202 066e F8E1      		ldi r31,hlo8(1599999)
 2203 0670 9150      	1:	subi r25,1
 2204 0672 E040      		sbci r30,0
 2205 0674 F040      		sbci r31,0
 2206 0676 01F4      		brne 1b
 2207 0678 00C0      		rjmp .
 2208 067a 0000      		nop
 2209               	.LBE235:
 2210               	.LBE234:
 2212               	.Ltext80:
 414:/Users/kevinKuwata1/Documents/xcode/ECEN1310Final/Mifare_SERVO/Mifare_SERVO/main.c ****                             i=5;//key in preventing loop from executing multiple times.
 2214               	.LM222:
 2215 067c 8701      		movw r16,r14
 415:/Users/kevinKuwata1/Documents/xcode/ECEN1310Final/Mifare_SERVO/Mifare_SERVO/main.c ****                                 //not likely to happen but it could
 2217               	.LM223:
 2218 067e 55E0      		ldi r21,lo8(5)
 2219 0680 C52E      		mov r12,r21
 2220 0682 D12C      		mov r13,__zero_reg__
 2221               	.L41:
 394:/Users/kevinKuwata1/Documents/xcode/ECEN1310Final/Mifare_SERVO/Mifare_SERVO/main.c ****                         if(str[i] == ram_tag1[i] || str[i]== ram_tag2[i]){
 2223               	.LM224:
 2224 0684 2FEF      		ldi r18,-1
 2225 0686 C21A      		sub r12,r18
 2226 0688 D20A      		sbc r13,r18
 2227 068a 85E0      		ldi r24,5
 2228 068c C816      		cp r12,r24
 2229 068e D104      		cpc r13,__zero_reg__
 2230 0690 04F4      		brge .+2
 2231 0692 00C0      		rjmp .L42
 2232               	.LBE227:
 436:/Users/kevinKuwata1/Documents/xcode/ECEN1310Final/Mifare_SERVO/Mifare_SERVO/main.c ****                         LCDClear();
 2234               	.LM225:
 2235 0694 8091 0000 		lds r24,tagNumber
 2236 0698 9091 0000 		lds r25,tagNumber+1
 2237 069c 8130      		cpi r24,1
 2238 069e 9105      		cpc r25,__zero_reg__
 2239 06a0 01F0      		breq .+2
 2240 06a2 00C0      		rjmp .L43
 436:/Users/kevinKuwata1/Documents/xcode/ECEN1310Final/Mifare_SERVO/Mifare_SERVO/main.c ****                         LCDClear();
 2242               	.LM226:
 2243 06a4 0130      		cpi r16,1
 2244 06a6 1105      		cpc r17,__zero_reg__
 2245 06a8 01F4      		brne .L37
 437:/Users/kevinKuwata1/Documents/xcode/ECEN1310Final/Mifare_SERVO/Mifare_SERVO/main.c ****                         LCDWriteString("ADDING CARD 1");
 2247               	.LM227:
 2248 06aa 60E0      		ldi r22,0
 2249 06ac 81E0      		ldi r24,lo8(1)
 2250 06ae 0E94 0000 		call LCDByte
 438:/Users/kevinKuwata1/Documents/xcode/ECEN1310Final/Mifare_SERVO/Mifare_SERVO/main.c ****                         _delay_ms(1000);
 2252               	.LM228:
 2253 06b2 80E0      		ldi r24,lo8(.LC20)
 2254 06b4 90E0      		ldi r25,hi8(.LC20)
 2255 06b6 0E94 0000 		call LCDWriteString
 2256               	.LBB236:
 2257               	.LBB237:
 2259               	.Ltext81:
 187:/usr/local/Cellar/avr-gcc/6.2.0/avr/include/util/delay.h **** 
 2261               	.LM229:
 2262 06ba 9FEF      		ldi r25,lo8(1599999)
 2263 06bc E9E6      		ldi r30,hi8(1599999)
 2264 06be F8E1      		ldi r31,hlo8(1599999)
 2265 06c0 9150      	1:	subi r25,1
 2266 06c2 E040      		sbci r30,0
 2267 06c4 F040      		sbci r31,0
 2268 06c6 01F4      		brne 1b
 2269 06c8 00C0      		rjmp .
 2270 06ca 0000      		nop
 2271 06cc 8E01      		movw r16,r28
 2272 06ce 0F5F      		subi r16,-1
 2273 06d0 1F4F      		sbci r17,-1
 2274 06d2 40E0      		ldi r20,lo8(tag1)
 2275 06d4 C42E      		mov r12,r20
 2276 06d6 40E0      		ldi r20,hi8(tag1)
 2277 06d8 D42E      		mov r13,r20
 2278               	.L44:
 2279               	.LBE237:
 2280               	.LBE236:
 2281               	.LBB238:
 2283               	.Ltext82:
 441:/Users/kevinKuwata1/Documents/xcode/ECEN1310Final/Mifare_SERVO/Mifare_SERVO/main.c ****                         }
 2285               	.LM230:
 2286 06da F801      		movw r30,r16
 2287 06dc 6191      		ld r22,Z+
 2288 06de 8F01      		movw r16,r30
 2289 06e0 F601      		movw r30,r12
 2290 06e2 8191      		ld r24,Z+
 2291 06e4 6F01      		movw r12,r30
 2292 06e6 70E0      		ldi r23,0
 2293 06e8 90E0      		ldi r25,0
 2294 06ea 0E94 0000 		call eeprom_write_word
 440:/Users/kevinKuwata1/Documents/xcode/ECEN1310Final/Mifare_SERVO/Mifare_SERVO/main.c ****                             write_eeprom_word(tag1[i], str[i]);
 2296               	.LM231:
 2297 06ee 0815      		cp r16,r8
 2298 06f0 1905      		cpc r17,r9
 2299 06f2 01F4      		brne .L44
 2300               	.LBE238:
 443:/Users/kevinKuwata1/Documents/xcode/ECEN1310Final/Mifare_SERVO/Mifare_SERVO/main.c ****                         addNext =0;
 2302               	.LM232:
 2303 06f4 82E0      		ldi r24,lo8(2)
 2304 06f6 90E0      		ldi r25,0
 2305               	.L73:
 456:/Users/kevinKuwata1/Documents/xcode/ECEN1310Final/Mifare_SERVO/Mifare_SERVO/main.c ****                         addNext = 0;
 2307               	.LM233:
 2308 06f8 9093 0000 		sts tagNumber+1,r25
 2309 06fc 8093 0000 		sts tagNumber,r24
 459:/Users/kevinKuwata1/Documents/xcode/ECEN1310Final/Mifare_SERVO/Mifare_SERVO/main.c ****                     }
 2311               	.LM234:
 2312 0700 60E0      		ldi r22,0
 2313 0702 81E0      		ldi r24,lo8(1)
 2314 0704 0E94 0000 		call LCDByte
 457:/Users/kevinKuwata1/Documents/xcode/ECEN1310Final/Mifare_SERVO/Mifare_SERVO/main.c ****                         deleteNext =0;
 2316               	.LM235:
 2317 0708 8701      		movw r16,r14
 2318               	.L37:
 2319               	.LBE253:
 463:/Users/kevinKuwata1/Documents/xcode/ECEN1310Final/Mifare_SERVO/Mifare_SERVO/main.c ****             byte = mfrc522_request(PICC_REQALL,str);
 2321               	.LM236:
 2322 070a 0E94 0000 		call loadTags
 464:/Users/kevinKuwata1/Documents/xcode/ECEN1310Final/Mifare_SERVO/Mifare_SERVO/main.c ****         }
 2324               	.LM237:
 2325 070e BE01      		movw r22,r28
 2326 0710 6F5F      		subi r22,-1
 2327 0712 7F4F      		sbci r23,-1
 2328 0714 82E5      		ldi r24,lo8(82)
 2329 0716 0E94 0000 		call mfrc522_request
 2330 071a D82E      		mov r13,r24
 2331 071c 00C0      		rjmp .L35
 2332               	.L40:
 2333               	.LBB254:
 2334               	.LBB239:
 432:/Users/kevinKuwata1/Documents/xcode/ECEN1310Final/Mifare_SERVO/Mifare_SERVO/main.c ****                             //addNext =1;
 2336               	.LM238:
 2337 071e 81E0      		ldi r24,lo8(1)
 2338 0720 0E94 0000 		call LCDByte
 2339 0724 00C0      		rjmp .L41
 2340               	.L43:
 2341               	.LBE239:
 449:/Users/kevinKuwata1/Documents/xcode/ECEN1310Final/Mifare_SERVO/Mifare_SERVO/main.c ****                         LCDClear();
 2343               	.LM239:
 2344 0726 0297      		sbiw r24,2
 2345 0728 01F4      		brne .L37
 449:/Users/kevinKuwata1/Documents/xcode/ECEN1310Final/Mifare_SERVO/Mifare_SERVO/main.c ****                         LCDClear();
 2347               	.LM240:
 2348 072a 0130      		cpi r16,1
 2349 072c 1105      		cpc r17,__zero_reg__
 2350 072e 01F4      		brne .L37
 450:/Users/kevinKuwata1/Documents/xcode/ECEN1310Final/Mifare_SERVO/Mifare_SERVO/main.c ****                         LCDWriteString("ADDING CARD 2");
 2352               	.LM241:
 2353 0730 60E0      		ldi r22,0
 2354 0732 81E0      		ldi r24,lo8(1)
 2355 0734 0E94 0000 		call LCDByte
 451:/Users/kevinKuwata1/Documents/xcode/ECEN1310Final/Mifare_SERVO/Mifare_SERVO/main.c ****                         _delay_ms(1000);
 2357               	.LM242:
 2358 0738 80E0      		ldi r24,lo8(.LC21)
 2359 073a 90E0      		ldi r25,hi8(.LC21)
 2360 073c 0E94 0000 		call LCDWriteString
 2361               	.LBB240:
 2362               	.LBB241:
 2364               	.Ltext83:
 187:/usr/local/Cellar/avr-gcc/6.2.0/avr/include/util/delay.h **** 
 2366               	.LM243:
 2367 0740 9FEF      		ldi r25,lo8(1599999)
 2368 0742 E9E6      		ldi r30,hi8(1599999)
 2369 0744 F8E1      		ldi r31,hlo8(1599999)
 2370 0746 9150      	1:	subi r25,1
 2371 0748 E040      		sbci r30,0
 2372 074a F040      		sbci r31,0
 2373 074c 01F4      		brne 1b
 2374 074e 00C0      		rjmp .
 2375 0750 0000      		nop
 2376 0752 8E01      		movw r16,r28
 2377 0754 0F5F      		subi r16,-1
 2378 0756 1F4F      		sbci r17,-1
 2379 0758 30E0      		ldi r19,lo8(tag2)
 2380 075a C32E      		mov r12,r19
 2381 075c 30E0      		ldi r19,hi8(tag2)
 2382 075e D32E      		mov r13,r19
 2383               	.L45:
 2384               	.LBE241:
 2385               	.LBE240:
 2386               	.LBB242:
 2388               	.Ltext84:
 454:/Users/kevinKuwata1/Documents/xcode/ECEN1310Final/Mifare_SERVO/Mifare_SERVO/main.c ****                         }
 2390               	.LM244:
 2391 0760 F801      		movw r30,r16
 2392 0762 6191      		ld r22,Z+
 2393 0764 8F01      		movw r16,r30
 2394 0766 F601      		movw r30,r12
 2395 0768 8191      		ld r24,Z+
 2396 076a 6F01      		movw r12,r30
 2397 076c 70E0      		ldi r23,0
 2398 076e 90E0      		ldi r25,0
 2399 0770 0E94 0000 		call eeprom_write_word
 453:/Users/kevinKuwata1/Documents/xcode/ECEN1310Final/Mifare_SERVO/Mifare_SERVO/main.c ****                             write_eeprom_word(tag2[i], str[i]);
 2401               	.LM245:
 2402 0774 0815      		cp r16,r8
 2403 0776 1905      		cpc r17,r9
 2404 0778 01F4      		brne .L45
 2405               	.LBE242:
 456:/Users/kevinKuwata1/Documents/xcode/ECEN1310Final/Mifare_SERVO/Mifare_SERVO/main.c ****                         addNext = 0;
 2407               	.LM246:
 2408 077a 83E0      		ldi r24,lo8(3)
 2409 077c 90E0      		ldi r25,0
 2410 077e 00C0      		rjmp .L73
 2411               	.L48:
 2412               	.LBE254:
 2413               	.LBB255:
 479:/Users/kevinKuwata1/Documents/xcode/ECEN1310Final/Mifare_SERVO/Mifare_SERVO/main.c ****             }
 2415               	.LM247:
 2416 0780 61E0      		ldi r22,lo8(1)
 2417 0782 80E0      		ldi r24,0
 2418 0784 0E94 0000 		call LCDGotoXY
 2419 0788 80E0      		ldi r24,lo8(.LC22)
 2420 078a 90E0      		ldi r25,hi8(.LC22)
 2421 078c 0E94 0000 		call LCDWriteString
 2422 0790 00C0      		rjmp .L50
 2423               	.L53:
 2424               	.LBB225:
 498:/Users/kevinKuwata1/Documents/xcode/ECEN1310Final/Mifare_SERVO/Mifare_SERVO/main.c ****                     //nextTag read add
 2426               	.LM248:
 2427 0792 F101      		movw r30,r2
 2428 0794 9081      		ld r25,Z
 2429 0796 8917      		cp r24,r25
 2430 0798 01F0      		breq .L60
 503:/Users/kevinKuwata1/Documents/xcode/ECEN1310Final/Mifare_SERVO/Mifare_SERVO/main.c ****                     deleteNext =1;
 2432               	.LM249:
 2433 079a EB89      		ldd r30,Y+19
 2434 079c FC89      		ldd r31,Y+20
 2435 079e 9081      		ld r25,Z
 2436 07a0 8917      		cp r24,r25
 2437 07a2 01F0      		breq .L61
 507:/Users/kevinKuwata1/Documents/xcode/ECEN1310Final/Mifare_SERVO/Mifare_SERVO/main.c ****                     deleteNext = 0;
 2439               	.LM250:
 2440 07a4 8FEF      		ldi r24,lo8(-1)
 2441 07a6 9FEF      		ldi r25,lo8(-1)
 2442 07a8 9093 0000 		sts validCard+1,r25
 2443 07ac 8093 0000 		sts validCard,r24
 508:/Users/kevinKuwata1/Documents/xcode/ECEN1310Final/Mifare_SERVO/Mifare_SERVO/main.c ****                     addNext = 0;
 2445               	.LM251:
 2446 07b0 7801      		movw r14,r16
 509:/Users/kevinKuwata1/Documents/xcode/ECEN1310Final/Mifare_SERVO/Mifare_SERVO/main.c ****                 }
 2448               	.LM252:
 2449 07b2 5801      		movw r10,r16
 2450 07b4 00C0      		rjmp .L54
 2451               	.L60:
 500:/Users/kevinKuwata1/Documents/xcode/ECEN1310Final/Mifare_SERVO/Mifare_SERVO/main.c ****                     
 2453               	.LM253:
 2454 07b6 AA24      		clr r10
 2455 07b8 A394      		inc r10
 2456 07ba B12C      		mov r11,__zero_reg__
 2457 07bc 00C0      		rjmp .L54
 2458               	.L61:
 504:/Users/kevinKuwata1/Documents/xcode/ECEN1310Final/Mifare_SERVO/Mifare_SERVO/main.c ****                 }
 2460               	.LM254:
 2461 07be EE24      		clr r14
 2462 07c0 E394      		inc r14
 2463 07c2 F12C      		mov r15,__zero_reg__
 2464 07c4 00C0      		rjmp .L54
 2465               	.L59:
 2466               	.LBE225:
 2467 07c6 7801      		movw r14,r16
 2468 07c8 5801      		movw r10,r16
 2469 07ca 00C0      		rjmp .L47
 2470               	.LBE255:
 2482               	.Lscope11:
 2483               		.comm	ram_tag,10,1
 2485               	.global	tag
 2486               		.section	.eeprom,"aw",@progbits
 2489               	tag:
 2490 0000 0000 0000 		.zero	10
 2490      0000 0000 
 2490      0000 
 2492               	.global	removeTag2
 2493               		.section .bss
 2496               	removeTag2:
 2497 0000 0000      		.zero	2
 2499               	.global	removeTag1
 2502               	removeTag1:
 2503 0002 0000      		.zero	2
 2505               	.global	deleteNext
 2508               	deleteNext:
 2509 0004 0000      		.zero	2
 2511               	.global	maxNumberTags
 2512               		.data
 2515               	maxNumberTags:
 2516 0000 0500      		.word	5
 2518               	.global	tagNumber
 2521               	tagNumber:
 2522 0002 0100      		.word	1
 2524               	.global	validCard
 2527               	validCard:
 2528 0004 FEFF      		.word	-2
 2530               		.comm	ram_tag4,5,1
 2532               		.comm	ram_tag3,5,1
 2534               		.comm	ram_tag2,5,1
 2536               		.comm	ram_tag1,5,1
 2538               		.comm	tag2,5,1
 2540               		.comm	tag1,5,1
 2542               	.global	DELETE
 2545               	DELETE:
 2546 0006 91        		.byte	-111
 2547 0007 92        		.byte	-110
 2548 0008 05        		.byte	5
 2549 0009 6B        		.byte	107
 2550 000a 6D        		.byte	109
 2552               	.global	ADD
 2555               	ADD:
 2556 000b 79        		.byte	121
 2557 000c F1        		.byte	-15
 2558 000d B5        		.byte	-75
 2559 000e 3B        		.byte	59
 2560 000f 06        		.byte	6
 2562               	.global	card2
 2565               	card2:
 2566 0010 40        		.byte	64
 2567 0011 EE        		.byte	-18
 2568 0012 DF        		.byte	-33
 2569 0013 87        		.byte	-121
 2570 0014 F6        		.byte	-10
 2572               	.global	card1
 2575               	card1:
 2576 0015 AE        		.byte	-82
 2577 0016 44        		.byte	68
 2578 0017 2D        		.byte	45
 2579 0018 5B        		.byte	91
 2580 0019 9C        		.byte	-100
 2582               	.global	newCard
 2583               		.section	.eeprom
 2586               	newCard:
 2587 000a 0000      		.zero	2
 2589               		.text
 2591               	.Letext0:
 2592               		.ident	"GCC: (GNU) 6.2.0"
 2593               	.global __do_copy_data
 2594               	.global __do_clear_bss
DEFINED SYMBOLS
                            *ABS*:0000000000000000 main.c
/var/folders/lm/s_klhqwn77z639t7_2gx62rr0000gn/T//ccUg6Kk0.s:2      *ABS*:000000000000003e __SP_H__
/var/folders/lm/s_klhqwn77z639t7_2gx62rr0000gn/T//ccUg6Kk0.s:3      *ABS*:000000000000003d __SP_L__
/var/folders/lm/s_klhqwn77z639t7_2gx62rr0000gn/T//ccUg6Kk0.s:4      *ABS*:000000000000003f __SREG__
/var/folders/lm/s_klhqwn77z639t7_2gx62rr0000gn/T//ccUg6Kk0.s:5      *ABS*:0000000000000000 __tmp_reg__
/var/folders/lm/s_klhqwn77z639t7_2gx62rr0000gn/T//ccUg6Kk0.s:6      *ABS*:0000000000000001 __zero_reg__
/var/folders/lm/s_klhqwn77z639t7_2gx62rr0000gn/T//ccUg6Kk0.s:117    .text:0000000000000000 initServo
/var/folders/lm/s_klhqwn77z639t7_2gx62rr0000gn/T//ccUg6Kk0.s:173    .text:0000000000000026 initLED
/var/folders/lm/s_klhqwn77z639t7_2gx62rr0000gn/T//ccUg6Kk0.s:291    .text:0000000000000088 addQ
/var/folders/lm/s_klhqwn77z639t7_2gx62rr0000gn/T//ccUg6Kk0.s:343    .text:00000000000000b2 addTag
                            *COM*:0000000000000005 tag1
                            *COM*:0000000000000005 tag2
/var/folders/lm/s_klhqwn77z639t7_2gx62rr0000gn/T//ccUg6Kk0.s:470    .text:000000000000014e validTag
/var/folders/lm/s_klhqwn77z639t7_2gx62rr0000gn/T//ccUg6Kk0.s:550    .text:000000000000018c open
/var/folders/lm/s_klhqwn77z639t7_2gx62rr0000gn/T//ccUg6Kk0.s:637    .text:00000000000001c8 close
/var/folders/lm/s_klhqwn77z639t7_2gx62rr0000gn/T//ccUg6Kk0.s:696    .text:00000000000001f0 initButton
/var/folders/lm/s_klhqwn77z639t7_2gx62rr0000gn/T//ccUg6Kk0.s:728    .text:0000000000000202 buttonRead
/var/folders/lm/s_klhqwn77z639t7_2gx62rr0000gn/T//ccUg6Kk0.s:838    .text:0000000000000268 loadTags
                            *COM*:0000000000000005 ram_tag1
                            *COM*:0000000000000005 ram_tag2
/var/folders/lm/s_klhqwn77z639t7_2gx62rr0000gn/T//ccUg6Kk0.s:964    .text.startup:0000000000000000 main
/var/folders/lm/s_klhqwn77z639t7_2gx62rr0000gn/T//ccUg6Kk0.s:2565   .data:0000000000000010 card2
/var/folders/lm/s_klhqwn77z639t7_2gx62rr0000gn/T//ccUg6Kk0.s:2555   .data:000000000000000b ADD
/var/folders/lm/s_klhqwn77z639t7_2gx62rr0000gn/T//ccUg6Kk0.s:2545   .data:0000000000000006 DELETE
/var/folders/lm/s_klhqwn77z639t7_2gx62rr0000gn/T//ccUg6Kk0.s:2575   .data:0000000000000015 card1
/var/folders/lm/s_klhqwn77z639t7_2gx62rr0000gn/T//ccUg6Kk0.s:2527   .data:0000000000000004 validCard
/var/folders/lm/s_klhqwn77z639t7_2gx62rr0000gn/T//ccUg6Kk0.s:2521   .data:0000000000000002 tagNumber
                            *COM*:000000000000000a ram_tag
/var/folders/lm/s_klhqwn77z639t7_2gx62rr0000gn/T//ccUg6Kk0.s:2489   .eeprom:0000000000000000 tag
/var/folders/lm/s_klhqwn77z639t7_2gx62rr0000gn/T//ccUg6Kk0.s:2496   .bss:0000000000000000 removeTag2
/var/folders/lm/s_klhqwn77z639t7_2gx62rr0000gn/T//ccUg6Kk0.s:2502   .bss:0000000000000002 removeTag1
/var/folders/lm/s_klhqwn77z639t7_2gx62rr0000gn/T//ccUg6Kk0.s:2508   .bss:0000000000000004 deleteNext
/var/folders/lm/s_klhqwn77z639t7_2gx62rr0000gn/T//ccUg6Kk0.s:2515   .data:0000000000000000 maxNumberTags
                            *COM*:0000000000000005 ram_tag4
                            *COM*:0000000000000005 ram_tag3
/var/folders/lm/s_klhqwn77z639t7_2gx62rr0000gn/T//ccUg6Kk0.s:2586   .eeprom:000000000000000a newCard

UNDEFINED SYMBOLS
eeprom_write_word
LCDByte
LCDWriteString
eeprom_read_word
LCDInit
LCDGotoXY
spi_init
mfrc522_init
mfrc522_request
LCDHexDumpXY
mfrc522_get_card_serial
LCDWriteInt
__do_copy_data
__do_clear_bss
