   1               		.file	"main.c"
   2               	__SP_H__ = 0x3e
   3               	__SP_L__ = 0x3d
   4               	__SREG__ = 0x3f
   5               	__tmp_reg__ = 0
   6               	__zero_reg__ = 1
   8               		.text
   9               	.Ltext0:
 115               	.global	initServo
 117               	initServo:
   1:/Users/kevinKuwata1/Documents/xcode/ECEN1310Final/Mifare_SERVO/Mifare_SERVO/main.c **** /*
   2:/Users/kevinKuwata1/Documents/xcode/ECEN1310Final/Mifare_SERVO/Mifare_SERVO/main.c ****  correctly reading tags now.
   3:/Users/kevinKuwata1/Documents/xcode/ECEN1310Final/Mifare_SERVO/Mifare_SERVO/main.c ****  on 3/17 this was working.
   4:/Users/kevinKuwata1/Documents/xcode/ECEN1310Final/Mifare_SERVO/Mifare_SERVO/main.c ****  I am modifying it now to see if i can get a servo to turn with a card read.
   5:/Users/kevinKuwata1/Documents/xcode/ECEN1310Final/Mifare_SERVO/Mifare_SERVO/main.c ****  * main.c
   6:/Users/kevinKuwata1/Documents/xcode/ECEN1310Final/Mifare_SERVO/Mifare_SERVO/main.c ****  *
   7:/Users/kevinKuwata1/Documents/xcode/ECEN1310Final/Mifare_SERVO/Mifare_SERVO/main.c ****  * Copyright 2013 Shimon <shimon@monistit.com>
   8:/Users/kevinKuwata1/Documents/xcode/ECEN1310Final/Mifare_SERVO/Mifare_SERVO/main.c ****  base code from Shimon to get the spi and rfid working. I added the servo support and implimented s
   9:/Users/kevinKuwata1/Documents/xcode/ECEN1310Final/Mifare_SERVO/Mifare_SERVO/main.c ****  the AVR requires a .1uF capacitor on power and ground. Without it the avr would randomly restart. 
  10:/Users/kevinKuwata1/Documents/xcode/ECEN1310Final/Mifare_SERVO/Mifare_SERVO/main.c ****  
  11:/Users/kevinKuwata1/Documents/xcode/ECEN1310Final/Mifare_SERVO/Mifare_SERVO/main.c ****  
  12:/Users/kevinKuwata1/Documents/xcode/ECEN1310Final/Mifare_SERVO/Mifare_SERVO/main.c ****  button polling works to turn on servo
  13:/Users/kevinKuwata1/Documents/xcode/ECEN1310Final/Mifare_SERVO/Mifare_SERVO/main.c ****  
  14:/Users/kevinKuwata1/Documents/xcode/ECEN1310Final/Mifare_SERVO/Mifare_SERVO/main.c ****  Not sure how I got card1 id. I dont know if it was uart or if it was with creative print lines
  15:/Users/kevinKuwata1/Documents/xcode/ECEN1310Final/Mifare_SERVO/Mifare_SERVO/main.c ****  I used creative print lines
  16:/Users/kevinKuwata1/Documents/xcode/ECEN1310Final/Mifare_SERVO/Mifare_SERVO/main.c ****  
  17:/Users/kevinKuwata1/Documents/xcode/ECEN1310Final/Mifare_SERVO/Mifare_SERVO/main.c ****  I want to find a way to write the read card to an array. I think its stored in str[k] array so tha
  18:/Users/kevinKuwata1/Documents/xcode/ECEN1310Final/Mifare_SERVO/Mifare_SERVO/main.c ****  x*/
  19:/Users/kevinKuwata1/Documents/xcode/ECEN1310Final/Mifare_SERVO/Mifare_SERVO/main.c **** 
  20:/Users/kevinKuwata1/Documents/xcode/ECEN1310Final/Mifare_SERVO/Mifare_SERVO/main.c **** #include <avr/io.h>
  21:/Users/kevinKuwata1/Documents/xcode/ECEN1310Final/Mifare_SERVO/Mifare_SERVO/main.c **** #include <util/delay.h>
  22:/Users/kevinKuwata1/Documents/xcode/ECEN1310Final/Mifare_SERVO/Mifare_SERVO/main.c **** #include <lcd.h>
  23:/Users/kevinKuwata1/Documents/xcode/ECEN1310Final/Mifare_SERVO/Mifare_SERVO/main.c **** #include <utils.h>
  24:/Users/kevinKuwata1/Documents/xcode/ECEN1310Final/Mifare_SERVO/Mifare_SERVO/main.c **** #include <spi.h>
  25:/Users/kevinKuwata1/Documents/xcode/ECEN1310Final/Mifare_SERVO/Mifare_SERVO/main.c **** #include <mfrc522.h>
  26:/Users/kevinKuwata1/Documents/xcode/ECEN1310Final/Mifare_SERVO/Mifare_SERVO/main.c **** #include <string.h>
  27:/Users/kevinKuwata1/Documents/xcode/ECEN1310Final/Mifare_SERVO/Mifare_SERVO/main.c **** #include <avr/eeprom.h> //so we can store cards
  28:/Users/kevinKuwata1/Documents/xcode/ECEN1310Final/Mifare_SERVO/Mifare_SERVO/main.c **** 
  29:/Users/kevinKuwata1/Documents/xcode/ECEN1310Final/Mifare_SERVO/Mifare_SERVO/main.c **** #define BV(x) (1<<x)     // shifts bits by x. and sets the bit to 1 or 0 based on x 0 is zero shift
  30:/Users/kevinKuwata1/Documents/xcode/ECEN1310Final/Mifare_SERVO/Mifare_SERVO/main.c **** #define ToggleBit(port, bit) (port ^= (1 << bit) //  toggles the bit by negating
  31:/Users/kevinKuwata1/Documents/xcode/ECEN1310Final/Mifare_SERVO/Mifare_SERVO/main.c **** 
  32:/Users/kevinKuwata1/Documents/xcode/ECEN1310Final/Mifare_SERVO/Mifare_SERVO/main.c **** #define button 0 //that is the pin on portc that is input for button
  33:/Users/kevinKuwata1/Documents/xcode/ECEN1310Final/Mifare_SERVO/Mifare_SERVO/main.c **** #define ledG 2 //led for indicator for button
  34:/Users/kevinKuwata1/Documents/xcode/ECEN1310Final/Mifare_SERVO/Mifare_SERVO/main.c **** #define ledR 1 //red led
  35:/Users/kevinKuwata1/Documents/xcode/ECEN1310Final/Mifare_SERVO/Mifare_SERVO/main.c **** #define card_display_Delay 0 //adds delay for the card readout 0 for no delay, 1 for a 1000 delay
  36:/Users/kevinKuwata1/Documents/xcode/ECEN1310Final/Mifare_SERVO/Mifare_SERVO/main.c **** 
  37:/Users/kevinKuwata1/Documents/xcode/ECEN1310Final/Mifare_SERVO/Mifare_SERVO/main.c **** //macros for adding stuff to eeprom
  38:/Users/kevinKuwata1/Documents/xcode/ECEN1310Final/Mifare_SERVO/Mifare_SERVO/main.c **** #define read_eeprom_word(address) eeprom_read_word((const uint8_t *) address)
  39:/Users/kevinKuwata1/Documents/xcode/ECEN1310Final/Mifare_SERVO/Mifare_SERVO/main.c **** #define write_eeprom_word(address, value) eeprom_write_word((uint8_t *) address, (uint8_t *) value)
  40:/Users/kevinKuwata1/Documents/xcode/ECEN1310Final/Mifare_SERVO/Mifare_SERVO/main.c **** 
  41:/Users/kevinKuwata1/Documents/xcode/ECEN1310Final/Mifare_SERVO/Mifare_SERVO/main.c **** unsigned int EEMEM newCard;
  42:/Users/kevinKuwata1/Documents/xcode/ECEN1310Final/Mifare_SERVO/Mifare_SERVO/main.c **** 
  43:/Users/kevinKuwata1/Documents/xcode/ECEN1310Final/Mifare_SERVO/Mifare_SERVO/main.c **** //uint8_t SelfTestBuffer[64];
  44:/Users/kevinKuwata1/Documents/xcode/ECEN1310Final/Mifare_SERVO/Mifare_SERVO/main.c **** 
  45:/Users/kevinKuwata1/Documents/xcode/ECEN1310Final/Mifare_SERVO/Mifare_SERVO/main.c **** /* === === ===    SERVO SETUP   === === === */
  46:/Users/kevinKuwata1/Documents/xcode/ECEN1310Final/Mifare_SERVO/Mifare_SERVO/main.c **** /*
  47:/Users/kevinKuwata1/Documents/xcode/ECEN1310Final/Mifare_SERVO/Mifare_SERVO/main.c ****  pin PB1 using 16 bit timer
  48:/Users/kevinKuwata1/Documents/xcode/ECEN1310Final/Mifare_SERVO/Mifare_SERVO/main.c ****  Read servo example that I have in xcode.
  49:/Users/kevinKuwata1/Documents/xcode/ECEN1310Final/Mifare_SERVO/Mifare_SERVO/main.c ****  to move the servo to max:
  50:/Users/kevinKuwata1/Documents/xcode/ECEN1310Final/Mifare_SERVO/Mifare_SERVO/main.c ****  OCR1A = ICR1 - 2000; //18000
  51:/Users/kevinKuwata1/Documents/xcode/ECEN1310Final/Mifare_SERVO/Mifare_SERVO/main.c ****  _delay_ms(500);
  52:/Users/kevinKuwata1/Documents/xcode/ECEN1310Final/Mifare_SERVO/Mifare_SERVO/main.c ****  to move servo to min
  53:/Users/kevinKuwata1/Documents/xcode/ECEN1310Final/Mifare_SERVO/Mifare_SERVO/main.c ****  OCR1A = ICR1 - 1000; //1000 milisecond
  54:/Users/kevinKuwata1/Documents/xcode/ECEN1310Final/Mifare_SERVO/Mifare_SERVO/main.c ****  _delay_ms(500);
  55:/Users/kevinKuwata1/Documents/xcode/ECEN1310Final/Mifare_SERVO/Mifare_SERVO/main.c ****  cannot use timer 1 because its used for spi. so we have to use timer 2 or do all software
  56:/Users/kevinKuwata1/Documents/xcode/ECEN1310Final/Mifare_SERVO/Mifare_SERVO/main.c ****  */
  57:/Users/kevinKuwata1/Documents/xcode/ECEN1310Final/Mifare_SERVO/Mifare_SERVO/main.c **** 
  58:/Users/kevinKuwata1/Documents/xcode/ECEN1310Final/Mifare_SERVO/Mifare_SERVO/main.c **** //void buttonInit(volatile uint8_t *port, int pin){
  59:/Users/kevinKuwata1/Documents/xcode/ECEN1310Final/Mifare_SERVO/Mifare_SERVO/main.c **** //
  60:/Users/kevinKuwata1/Documents/xcode/ECEN1310Final/Mifare_SERVO/Mifare_SERVO/main.c **** //}
  61:/Users/kevinKuwata1/Documents/xcode/ECEN1310Final/Mifare_SERVO/Mifare_SERVO/main.c **** 
  62:/Users/kevinKuwata1/Documents/xcode/ECEN1310Final/Mifare_SERVO/Mifare_SERVO/main.c **** //void buttonRead(){
  63:/Users/kevinKuwata1/Documents/xcode/ECEN1310Final/Mifare_SERVO/Mifare_SERVO/main.c **** //    //button is hardware debounced.
  64:/Users/kevinKuwata1/Documents/xcode/ECEN1310Final/Mifare_SERVO/Mifare_SERVO/main.c **** //
  65:/Users/kevinKuwata1/Documents/xcode/ECEN1310Final/Mifare_SERVO/Mifare_SERVO/main.c **** //}
  66:/Users/kevinKuwata1/Documents/xcode/ECEN1310Final/Mifare_SERVO/Mifare_SERVO/main.c **** 
  67:/Users/kevinKuwata1/Documents/xcode/ECEN1310Final/Mifare_SERVO/Mifare_SERVO/main.c **** //RFID constants
  68:/Users/kevinKuwata1/Documents/xcode/ECEN1310Final/Mifare_SERVO/Mifare_SERVO/main.c **** //holds id cards
  69:/Users/kevinKuwata1/Documents/xcode/ECEN1310Final/Mifare_SERVO/Mifare_SERVO/main.c **** uint8_t card1[5] = {174,68,45,91,156}; //only 5 elements!!!
  70:/Users/kevinKuwata1/Documents/xcode/ECEN1310Final/Mifare_SERVO/Mifare_SERVO/main.c **** uint8_t card2[5] = {64, 238 , 223, 135, 246};
  71:/Users/kevinKuwata1/Documents/xcode/ECEN1310Final/Mifare_SERVO/Mifare_SERVO/main.c **** uint8_t ADD[5] ={ 121, 241, 181 ,59, 6}; //add card used to add other cards.
  72:/Users/kevinKuwata1/Documents/xcode/ECEN1310Final/Mifare_SERVO/Mifare_SERVO/main.c **** uint8_t DELETE[5] = {145, 146  ,5 ,107 ,109}; //delete card used to delete the next card scanned.
  73:/Users/kevinKuwata1/Documents/xcode/ECEN1310Final/Mifare_SERVO/Mifare_SERVO/main.c **** uint8_t tag1[5];
  74:/Users/kevinKuwata1/Documents/xcode/ECEN1310Final/Mifare_SERVO/Mifare_SERVO/main.c **** uint8_t tag2[5];
  75:/Users/kevinKuwata1/Documents/xcode/ECEN1310Final/Mifare_SERVO/Mifare_SERVO/main.c **** uint8_t ram_tag1[5];
  76:/Users/kevinKuwata1/Documents/xcode/ECEN1310Final/Mifare_SERVO/Mifare_SERVO/main.c **** uint8_t ram_tag2[5];
  77:/Users/kevinKuwata1/Documents/xcode/ECEN1310Final/Mifare_SERVO/Mifare_SERVO/main.c **** uint8_t ram_tag3[5];
  78:/Users/kevinKuwata1/Documents/xcode/ECEN1310Final/Mifare_SERVO/Mifare_SERVO/main.c **** uint8_t ram_tag4[5];
  79:/Users/kevinKuwata1/Documents/xcode/ECEN1310Final/Mifare_SERVO/Mifare_SERVO/main.c **** 
  80:/Users/kevinKuwata1/Documents/xcode/ECEN1310Final/Mifare_SERVO/Mifare_SERVO/main.c **** 
  81:/Users/kevinKuwata1/Documents/xcode/ECEN1310Final/Mifare_SERVO/Mifare_SERVO/main.c **** 
  82:/Users/kevinKuwata1/Documents/xcode/ECEN1310Final/Mifare_SERVO/Mifare_SERVO/main.c **** 
  83:/Users/kevinKuwata1/Documents/xcode/ECEN1310Final/Mifare_SERVO/Mifare_SERVO/main.c **** int validCard = -2;
  84:/Users/kevinKuwata1/Documents/xcode/ECEN1310Final/Mifare_SERVO/Mifare_SERVO/main.c **** int tagNumber = 1; // iterrate after each tag added
  85:/Users/kevinKuwata1/Documents/xcode/ECEN1310Final/Mifare_SERVO/Mifare_SERVO/main.c **** int maxNumberTags =5; //maximum number of cards I can add- arbitrary, does not include the master k
  86:/Users/kevinKuwata1/Documents/xcode/ECEN1310Final/Mifare_SERVO/Mifare_SERVO/main.c **** 
  87:/Users/kevinKuwata1/Documents/xcode/ECEN1310Final/Mifare_SERVO/Mifare_SERVO/main.c **** int deleteNext =0;
  88:/Users/kevinKuwata1/Documents/xcode/ECEN1310Final/Mifare_SERVO/Mifare_SERVO/main.c **** int removeTag1 =0;
  89:/Users/kevinKuwata1/Documents/xcode/ECEN1310Final/Mifare_SERVO/Mifare_SERVO/main.c **** int removeTag2 = 0; //variable used to identify which tag should be rmeoebed because a tag added 1s
  90:/Users/kevinKuwata1/Documents/xcode/ECEN1310Final/Mifare_SERVO/Mifare_SERVO/main.c **** 
  91:/Users/kevinKuwata1/Documents/xcode/ECEN1310Final/Mifare_SERVO/Mifare_SERVO/main.c **** void initServo(void){
 119               	.LM0:
 120               	.LFBB1:
 121               	/* prologue: function */
 122               	/* frame size = 0 */
 123               	/* stack size = 0 */
 124               	.L__stack_usage = 0
  92:/Users/kevinKuwata1/Documents/xcode/ECEN1310Final/Mifare_SERVO/Mifare_SERVO/main.c ****     //            //make A5 output.
  93:/Users/kevinKuwata1/Documents/xcode/ECEN1310Final/Mifare_SERVO/Mifare_SERVO/main.c ****     //            *ddr=BV(pin);      // PORTC declared as output 0xFF is all output 11111 so i have
  94:/Users/kevinKuwata1/Documents/xcode/ECEN1310Final/Mifare_SERVO/Mifare_SERVO/main.c ****     //            *port=BV(pin);     // PORTC is initially LOW OFF the led initially /
  95:/Users/kevinKuwata1/Documents/xcode/ECEN1310Final/Mifare_SERVO/Mifare_SERVO/main.c ****     //to do make the register parameter work
  96:/Users/kevinKuwata1/Documents/xcode/ECEN1310Final/Mifare_SERVO/Mifare_SERVO/main.c ****     
  97:/Users/kevinKuwata1/Documents/xcode/ECEN1310Final/Mifare_SERVO/Mifare_SERVO/main.c ****     DDRC = BV(5);
 126               	.LM1:
 127 0000 90E2      		ldi r25,lo8(32)
 128 0002 97B9      		out 0x7,r25
  98:/Users/kevinKuwata1/Documents/xcode/ECEN1310Final/Mifare_SERVO/Mifare_SERVO/main.c ****     //set to closed position
  99:/Users/kevinKuwata1/Documents/xcode/ECEN1310Final/Mifare_SERVO/Mifare_SERVO/main.c ****     PORTC = (BV(5));
 130               	.LM2:
 131 0004 98B9      		out 0x8,r25
 132               	.LBB89:
 133               	.LBB90:
 135               	.Ltext1:
   1:/usr/local/Cellar/avr-gcc/6.2.0/avr/include/util/delay.h **** /* Copyright (c) 2002, Marek Michalkiewicz
   2:/usr/local/Cellar/avr-gcc/6.2.0/avr/include/util/delay.h ****    Copyright (c) 2004,2005,2007 Joerg Wunsch
   3:/usr/local/Cellar/avr-gcc/6.2.0/avr/include/util/delay.h ****    Copyright (c) 2007  Florin-Viorel Petrov
   4:/usr/local/Cellar/avr-gcc/6.2.0/avr/include/util/delay.h ****    All rights reserved.
   5:/usr/local/Cellar/avr-gcc/6.2.0/avr/include/util/delay.h **** 
   6:/usr/local/Cellar/avr-gcc/6.2.0/avr/include/util/delay.h ****    Redistribution and use in source and binary forms, with or without
   7:/usr/local/Cellar/avr-gcc/6.2.0/avr/include/util/delay.h ****    modification, are permitted provided that the following conditions are met:
   8:/usr/local/Cellar/avr-gcc/6.2.0/avr/include/util/delay.h **** 
   9:/usr/local/Cellar/avr-gcc/6.2.0/avr/include/util/delay.h ****    * Redistributions of source code must retain the above copyright
  10:/usr/local/Cellar/avr-gcc/6.2.0/avr/include/util/delay.h ****      notice, this list of conditions and the following disclaimer.
  11:/usr/local/Cellar/avr-gcc/6.2.0/avr/include/util/delay.h **** 
  12:/usr/local/Cellar/avr-gcc/6.2.0/avr/include/util/delay.h ****    * Redistributions in binary form must reproduce the above copyright
  13:/usr/local/Cellar/avr-gcc/6.2.0/avr/include/util/delay.h ****      notice, this list of conditions and the following disclaimer in
  14:/usr/local/Cellar/avr-gcc/6.2.0/avr/include/util/delay.h ****      the documentation and/or other materials provided with the
  15:/usr/local/Cellar/avr-gcc/6.2.0/avr/include/util/delay.h ****      distribution.
  16:/usr/local/Cellar/avr-gcc/6.2.0/avr/include/util/delay.h **** 
  17:/usr/local/Cellar/avr-gcc/6.2.0/avr/include/util/delay.h ****    * Neither the name of the copyright holders nor the names of
  18:/usr/local/Cellar/avr-gcc/6.2.0/avr/include/util/delay.h ****      contributors may be used to endorse or promote products derived
  19:/usr/local/Cellar/avr-gcc/6.2.0/avr/include/util/delay.h ****      from this software without specific prior written permission.
  20:/usr/local/Cellar/avr-gcc/6.2.0/avr/include/util/delay.h **** 
  21:/usr/local/Cellar/avr-gcc/6.2.0/avr/include/util/delay.h ****   THIS SOFTWARE IS PROVIDED BY THE COPYRIGHT HOLDERS AND CONTRIBUTORS "AS IS"
  22:/usr/local/Cellar/avr-gcc/6.2.0/avr/include/util/delay.h ****   AND ANY EXPRESS OR IMPLIED WARRANTIES, INCLUDING, BUT NOT LIMITED TO, THE
  23:/usr/local/Cellar/avr-gcc/6.2.0/avr/include/util/delay.h ****   IMPLIED WARRANTIES OF MERCHANTABILITY AND FITNESS FOR A PARTICULAR PURPOSE
  24:/usr/local/Cellar/avr-gcc/6.2.0/avr/include/util/delay.h ****   ARE DISCLAIMED. IN NO EVENT SHALL THE COPYRIGHT OWNER OR CONTRIBUTORS BE
  25:/usr/local/Cellar/avr-gcc/6.2.0/avr/include/util/delay.h ****   LIABLE FOR ANY DIRECT, INDIRECT, INCIDENTAL, SPECIAL, EXEMPLARY, OR
  26:/usr/local/Cellar/avr-gcc/6.2.0/avr/include/util/delay.h ****   CONSEQUENTIAL DAMAGES (INCLUDING, BUT NOT LIMITED TO, PROCUREMENT OF
  27:/usr/local/Cellar/avr-gcc/6.2.0/avr/include/util/delay.h ****   SUBSTITUTE GOODS OR SERVICES; LOSS OF USE, DATA, OR PROFITS; OR BUSINESS
  28:/usr/local/Cellar/avr-gcc/6.2.0/avr/include/util/delay.h ****   INTERRUPTION) HOWEVER CAUSED AND ON ANY THEORY OF LIABILITY, WHETHER IN
  29:/usr/local/Cellar/avr-gcc/6.2.0/avr/include/util/delay.h ****   CONTRACT, STRICT LIABILITY, OR TORT (INCLUDING NEGLIGENCE OR OTHERWISE)
  30:/usr/local/Cellar/avr-gcc/6.2.0/avr/include/util/delay.h ****   ARISING IN ANY WAY OUT OF THE USE OF THIS SOFTWARE, EVEN IF ADVISED OF THE
  31:/usr/local/Cellar/avr-gcc/6.2.0/avr/include/util/delay.h ****   POSSIBILITY OF SUCH DAMAGE. */
  32:/usr/local/Cellar/avr-gcc/6.2.0/avr/include/util/delay.h **** 
  33:/usr/local/Cellar/avr-gcc/6.2.0/avr/include/util/delay.h **** /* $Id: delay.h.in 2506 2016-02-08 10:05:45Z joerg_wunsch $ */
  34:/usr/local/Cellar/avr-gcc/6.2.0/avr/include/util/delay.h **** 
  35:/usr/local/Cellar/avr-gcc/6.2.0/avr/include/util/delay.h **** #ifndef _UTIL_DELAY_H_
  36:/usr/local/Cellar/avr-gcc/6.2.0/avr/include/util/delay.h **** #define _UTIL_DELAY_H_ 1
  37:/usr/local/Cellar/avr-gcc/6.2.0/avr/include/util/delay.h **** 
  38:/usr/local/Cellar/avr-gcc/6.2.0/avr/include/util/delay.h **** #ifndef __DOXYGEN__
  39:/usr/local/Cellar/avr-gcc/6.2.0/avr/include/util/delay.h **** #  ifndef __HAS_DELAY_CYCLES
  40:/usr/local/Cellar/avr-gcc/6.2.0/avr/include/util/delay.h **** #    define __HAS_DELAY_CYCLES 1
  41:/usr/local/Cellar/avr-gcc/6.2.0/avr/include/util/delay.h **** #  endif
  42:/usr/local/Cellar/avr-gcc/6.2.0/avr/include/util/delay.h **** #endif  /* __DOXYGEN__ */
  43:/usr/local/Cellar/avr-gcc/6.2.0/avr/include/util/delay.h **** 
  44:/usr/local/Cellar/avr-gcc/6.2.0/avr/include/util/delay.h **** #include <inttypes.h>
  45:/usr/local/Cellar/avr-gcc/6.2.0/avr/include/util/delay.h **** #include <util/delay_basic.h>
  46:/usr/local/Cellar/avr-gcc/6.2.0/avr/include/util/delay.h **** #include <math.h>
  47:/usr/local/Cellar/avr-gcc/6.2.0/avr/include/util/delay.h **** 
  48:/usr/local/Cellar/avr-gcc/6.2.0/avr/include/util/delay.h **** /** \file */
  49:/usr/local/Cellar/avr-gcc/6.2.0/avr/include/util/delay.h **** /** \defgroup util_delay <util/delay.h>: Convenience functions for busy-wait delay loops
  50:/usr/local/Cellar/avr-gcc/6.2.0/avr/include/util/delay.h ****     \code
  51:/usr/local/Cellar/avr-gcc/6.2.0/avr/include/util/delay.h ****     #define F_CPU 1000000UL  // 1 MHz
  52:/usr/local/Cellar/avr-gcc/6.2.0/avr/include/util/delay.h ****     //#define F_CPU 14.7456E6
  53:/usr/local/Cellar/avr-gcc/6.2.0/avr/include/util/delay.h ****     #include <util/delay.h>
  54:/usr/local/Cellar/avr-gcc/6.2.0/avr/include/util/delay.h ****     \endcode
  55:/usr/local/Cellar/avr-gcc/6.2.0/avr/include/util/delay.h **** 
  56:/usr/local/Cellar/avr-gcc/6.2.0/avr/include/util/delay.h ****     \note As an alternative method, it is possible to pass the
  57:/usr/local/Cellar/avr-gcc/6.2.0/avr/include/util/delay.h ****     F_CPU macro down to the compiler from the Makefile.
  58:/usr/local/Cellar/avr-gcc/6.2.0/avr/include/util/delay.h ****     Obviously, in that case, no \c \#define statement should be
  59:/usr/local/Cellar/avr-gcc/6.2.0/avr/include/util/delay.h ****     used.
  60:/usr/local/Cellar/avr-gcc/6.2.0/avr/include/util/delay.h **** 
  61:/usr/local/Cellar/avr-gcc/6.2.0/avr/include/util/delay.h ****     The functions in this header file are wrappers around the basic
  62:/usr/local/Cellar/avr-gcc/6.2.0/avr/include/util/delay.h ****     busy-wait functions from <util/delay_basic.h>.  They are meant as
  63:/usr/local/Cellar/avr-gcc/6.2.0/avr/include/util/delay.h ****     convenience functions where actual time values can be specified
  64:/usr/local/Cellar/avr-gcc/6.2.0/avr/include/util/delay.h ****     rather than a number of cycles to wait for.  The idea behind is
  65:/usr/local/Cellar/avr-gcc/6.2.0/avr/include/util/delay.h ****     that compile-time constant expressions will be eliminated by
  66:/usr/local/Cellar/avr-gcc/6.2.0/avr/include/util/delay.h ****     compiler optimization so floating-point expressions can be used
  67:/usr/local/Cellar/avr-gcc/6.2.0/avr/include/util/delay.h ****     to calculate the number of delay cycles needed based on the CPU
  68:/usr/local/Cellar/avr-gcc/6.2.0/avr/include/util/delay.h ****     frequency passed by the macro F_CPU.
  69:/usr/local/Cellar/avr-gcc/6.2.0/avr/include/util/delay.h **** 
  70:/usr/local/Cellar/avr-gcc/6.2.0/avr/include/util/delay.h ****     \note In order for these functions to work as intended, compiler
  71:/usr/local/Cellar/avr-gcc/6.2.0/avr/include/util/delay.h ****     optimizations <em>must</em> be enabled, and the delay time
  72:/usr/local/Cellar/avr-gcc/6.2.0/avr/include/util/delay.h ****     <em>must</em> be an expression that is a known constant at
  73:/usr/local/Cellar/avr-gcc/6.2.0/avr/include/util/delay.h ****     compile-time.  If these requirements are not met, the resulting
  74:/usr/local/Cellar/avr-gcc/6.2.0/avr/include/util/delay.h ****     delay will be much longer (and basically unpredictable), and
  75:/usr/local/Cellar/avr-gcc/6.2.0/avr/include/util/delay.h ****     applications that otherwise do not use floating-point calculations
  76:/usr/local/Cellar/avr-gcc/6.2.0/avr/include/util/delay.h ****     will experience severe code bloat by the floating-point library
  77:/usr/local/Cellar/avr-gcc/6.2.0/avr/include/util/delay.h ****     routines linked into the application.
  78:/usr/local/Cellar/avr-gcc/6.2.0/avr/include/util/delay.h **** 
  79:/usr/local/Cellar/avr-gcc/6.2.0/avr/include/util/delay.h ****     The functions available allow the specification of microsecond, and
  80:/usr/local/Cellar/avr-gcc/6.2.0/avr/include/util/delay.h ****     millisecond delays directly, using the application-supplied macro
  81:/usr/local/Cellar/avr-gcc/6.2.0/avr/include/util/delay.h ****     F_CPU as the CPU clock frequency (in Hertz).
  82:/usr/local/Cellar/avr-gcc/6.2.0/avr/include/util/delay.h **** 
  83:/usr/local/Cellar/avr-gcc/6.2.0/avr/include/util/delay.h **** */
  84:/usr/local/Cellar/avr-gcc/6.2.0/avr/include/util/delay.h **** 
  85:/usr/local/Cellar/avr-gcc/6.2.0/avr/include/util/delay.h **** #if !defined(__DOXYGEN__)
  86:/usr/local/Cellar/avr-gcc/6.2.0/avr/include/util/delay.h **** static __inline__ void _delay_us(double __us) __attribute__((__always_inline__));
  87:/usr/local/Cellar/avr-gcc/6.2.0/avr/include/util/delay.h **** static __inline__ void _delay_ms(double __ms) __attribute__((__always_inline__));
  88:/usr/local/Cellar/avr-gcc/6.2.0/avr/include/util/delay.h **** #endif
  89:/usr/local/Cellar/avr-gcc/6.2.0/avr/include/util/delay.h **** 
  90:/usr/local/Cellar/avr-gcc/6.2.0/avr/include/util/delay.h **** #ifndef F_CPU
  91:/usr/local/Cellar/avr-gcc/6.2.0/avr/include/util/delay.h **** /* prevent compiler error by supplying a default */
  92:/usr/local/Cellar/avr-gcc/6.2.0/avr/include/util/delay.h **** # warning "F_CPU not defined for <util/delay.h>"
  93:/usr/local/Cellar/avr-gcc/6.2.0/avr/include/util/delay.h **** /** \ingroup util_delay
  94:/usr/local/Cellar/avr-gcc/6.2.0/avr/include/util/delay.h ****     \def F_CPU
  95:/usr/local/Cellar/avr-gcc/6.2.0/avr/include/util/delay.h ****     \brief CPU frequency in Hz
  96:/usr/local/Cellar/avr-gcc/6.2.0/avr/include/util/delay.h **** 
  97:/usr/local/Cellar/avr-gcc/6.2.0/avr/include/util/delay.h ****     The macro F_CPU specifies the CPU frequency to be considered by
  98:/usr/local/Cellar/avr-gcc/6.2.0/avr/include/util/delay.h ****     the delay macros.  This macro is normally supplied by the
  99:/usr/local/Cellar/avr-gcc/6.2.0/avr/include/util/delay.h ****     environment (e.g. from within a project header, or the project's
 100:/usr/local/Cellar/avr-gcc/6.2.0/avr/include/util/delay.h ****     Makefile).  The value 1 MHz here is only provided as a "vanilla"
 101:/usr/local/Cellar/avr-gcc/6.2.0/avr/include/util/delay.h ****     fallback if no such user-provided definition could be found.
 102:/usr/local/Cellar/avr-gcc/6.2.0/avr/include/util/delay.h **** 
 103:/usr/local/Cellar/avr-gcc/6.2.0/avr/include/util/delay.h ****     In terms of the delay functions, the CPU frequency can be given as
 104:/usr/local/Cellar/avr-gcc/6.2.0/avr/include/util/delay.h ****     a floating-point constant (e.g. 3.6864E6 for 3.6864 MHz).
 105:/usr/local/Cellar/avr-gcc/6.2.0/avr/include/util/delay.h ****     However, the macros in <util/setbaud.h> require it to be an
 106:/usr/local/Cellar/avr-gcc/6.2.0/avr/include/util/delay.h ****     integer value.
 107:/usr/local/Cellar/avr-gcc/6.2.0/avr/include/util/delay.h ****  */
 108:/usr/local/Cellar/avr-gcc/6.2.0/avr/include/util/delay.h **** # define F_CPU 1000000UL
 109:/usr/local/Cellar/avr-gcc/6.2.0/avr/include/util/delay.h **** #endif
 110:/usr/local/Cellar/avr-gcc/6.2.0/avr/include/util/delay.h **** 
 111:/usr/local/Cellar/avr-gcc/6.2.0/avr/include/util/delay.h **** #ifndef __OPTIMIZE__
 112:/usr/local/Cellar/avr-gcc/6.2.0/avr/include/util/delay.h **** # warning "Compiler optimizations disabled; functions from <util/delay.h> won't work as designed"
 113:/usr/local/Cellar/avr-gcc/6.2.0/avr/include/util/delay.h **** #endif
 114:/usr/local/Cellar/avr-gcc/6.2.0/avr/include/util/delay.h **** 
 115:/usr/local/Cellar/avr-gcc/6.2.0/avr/include/util/delay.h **** #if __HAS_DELAY_CYCLES && defined(__OPTIMIZE__) && \
 116:/usr/local/Cellar/avr-gcc/6.2.0/avr/include/util/delay.h ****   !defined(__DELAY_BACKWARD_COMPATIBLE__) &&	   \
 117:/usr/local/Cellar/avr-gcc/6.2.0/avr/include/util/delay.h ****   __STDC_HOSTED__
 118:/usr/local/Cellar/avr-gcc/6.2.0/avr/include/util/delay.h **** #  include <math.h>
 119:/usr/local/Cellar/avr-gcc/6.2.0/avr/include/util/delay.h **** #endif
 120:/usr/local/Cellar/avr-gcc/6.2.0/avr/include/util/delay.h **** 
 121:/usr/local/Cellar/avr-gcc/6.2.0/avr/include/util/delay.h **** /**
 122:/usr/local/Cellar/avr-gcc/6.2.0/avr/include/util/delay.h ****    \ingroup util_delay
 123:/usr/local/Cellar/avr-gcc/6.2.0/avr/include/util/delay.h **** 
 124:/usr/local/Cellar/avr-gcc/6.2.0/avr/include/util/delay.h ****    Perform a delay of \c __ms milliseconds, using _delay_loop_2().
 125:/usr/local/Cellar/avr-gcc/6.2.0/avr/include/util/delay.h **** 
 126:/usr/local/Cellar/avr-gcc/6.2.0/avr/include/util/delay.h ****    The macro F_CPU is supposed to be defined to a
 127:/usr/local/Cellar/avr-gcc/6.2.0/avr/include/util/delay.h ****    constant defining the CPU clock frequency (in Hertz).
 128:/usr/local/Cellar/avr-gcc/6.2.0/avr/include/util/delay.h **** 
 129:/usr/local/Cellar/avr-gcc/6.2.0/avr/include/util/delay.h ****    The maximal possible delay is 262.14 ms / F_CPU in MHz.
 130:/usr/local/Cellar/avr-gcc/6.2.0/avr/include/util/delay.h **** 
 131:/usr/local/Cellar/avr-gcc/6.2.0/avr/include/util/delay.h ****    When the user request delay which exceed the maximum possible one,
 132:/usr/local/Cellar/avr-gcc/6.2.0/avr/include/util/delay.h ****    _delay_ms() provides a decreased resolution functionality. In this
 133:/usr/local/Cellar/avr-gcc/6.2.0/avr/include/util/delay.h ****    mode _delay_ms() will work with a resolution of 1/10 ms, providing
 134:/usr/local/Cellar/avr-gcc/6.2.0/avr/include/util/delay.h ****    delays up to 6.5535 seconds (independent from CPU frequency).  The
 135:/usr/local/Cellar/avr-gcc/6.2.0/avr/include/util/delay.h ****    user will not be informed about decreased resolution.
 136:/usr/local/Cellar/avr-gcc/6.2.0/avr/include/util/delay.h **** 
 137:/usr/local/Cellar/avr-gcc/6.2.0/avr/include/util/delay.h ****    If the avr-gcc toolchain has __builtin_avr_delay_cycles()
 138:/usr/local/Cellar/avr-gcc/6.2.0/avr/include/util/delay.h ****    support, maximal possible delay is 4294967.295 ms/ F_CPU in MHz. For
 139:/usr/local/Cellar/avr-gcc/6.2.0/avr/include/util/delay.h ****    values greater than the maximal possible delay, overflows results in
 140:/usr/local/Cellar/avr-gcc/6.2.0/avr/include/util/delay.h ****    no delay i.e., 0ms.
 141:/usr/local/Cellar/avr-gcc/6.2.0/avr/include/util/delay.h **** 
 142:/usr/local/Cellar/avr-gcc/6.2.0/avr/include/util/delay.h ****    Conversion of \c __ms into clock cycles may not always result in
 143:/usr/local/Cellar/avr-gcc/6.2.0/avr/include/util/delay.h ****    integer.  By default, the clock cycles rounded up to next
 144:/usr/local/Cellar/avr-gcc/6.2.0/avr/include/util/delay.h ****    integer. This ensures that the user gets at least \c __ms
 145:/usr/local/Cellar/avr-gcc/6.2.0/avr/include/util/delay.h ****    microseconds of delay.
 146:/usr/local/Cellar/avr-gcc/6.2.0/avr/include/util/delay.h **** 
 147:/usr/local/Cellar/avr-gcc/6.2.0/avr/include/util/delay.h ****    Alternatively, by defining the macro \c __DELAY_ROUND_DOWN__, or
 148:/usr/local/Cellar/avr-gcc/6.2.0/avr/include/util/delay.h ****    \c __DELAY_ROUND_CLOSEST__, before including this header file, the
 149:/usr/local/Cellar/avr-gcc/6.2.0/avr/include/util/delay.h ****    algorithm can be made to round down, or round to closest integer,
 150:/usr/local/Cellar/avr-gcc/6.2.0/avr/include/util/delay.h ****    respectively.
 151:/usr/local/Cellar/avr-gcc/6.2.0/avr/include/util/delay.h **** 
 152:/usr/local/Cellar/avr-gcc/6.2.0/avr/include/util/delay.h ****    \note
 153:/usr/local/Cellar/avr-gcc/6.2.0/avr/include/util/delay.h **** 
 154:/usr/local/Cellar/avr-gcc/6.2.0/avr/include/util/delay.h ****    The implementation of _delay_ms() based on
 155:/usr/local/Cellar/avr-gcc/6.2.0/avr/include/util/delay.h ****    __builtin_avr_delay_cycles() is not backward compatible with older
 156:/usr/local/Cellar/avr-gcc/6.2.0/avr/include/util/delay.h ****    implementations.  In order to get functionality backward compatible
 157:/usr/local/Cellar/avr-gcc/6.2.0/avr/include/util/delay.h ****    with previous versions, the macro \c "__DELAY_BACKWARD_COMPATIBLE__"
 158:/usr/local/Cellar/avr-gcc/6.2.0/avr/include/util/delay.h ****    must be defined before including this header file. Also, the
 159:/usr/local/Cellar/avr-gcc/6.2.0/avr/include/util/delay.h ****    backward compatible algorithm will be chosen if the code is
 160:/usr/local/Cellar/avr-gcc/6.2.0/avr/include/util/delay.h ****    compiled in a <em>freestanding environment</em> (GCC option
 161:/usr/local/Cellar/avr-gcc/6.2.0/avr/include/util/delay.h ****    \c -ffreestanding), as the math functions required for rounding are
 162:/usr/local/Cellar/avr-gcc/6.2.0/avr/include/util/delay.h ****    not available to the compiler then.
 163:/usr/local/Cellar/avr-gcc/6.2.0/avr/include/util/delay.h **** 
 164:/usr/local/Cellar/avr-gcc/6.2.0/avr/include/util/delay.h ****  */
 165:/usr/local/Cellar/avr-gcc/6.2.0/avr/include/util/delay.h **** void
 166:/usr/local/Cellar/avr-gcc/6.2.0/avr/include/util/delay.h **** _delay_ms(double __ms)
 167:/usr/local/Cellar/avr-gcc/6.2.0/avr/include/util/delay.h **** {
 168:/usr/local/Cellar/avr-gcc/6.2.0/avr/include/util/delay.h **** 	double __tmp ;
 169:/usr/local/Cellar/avr-gcc/6.2.0/avr/include/util/delay.h **** #if __HAS_DELAY_CYCLES && defined(__OPTIMIZE__) && \
 170:/usr/local/Cellar/avr-gcc/6.2.0/avr/include/util/delay.h ****   !defined(__DELAY_BACKWARD_COMPATIBLE__) &&	   \
 171:/usr/local/Cellar/avr-gcc/6.2.0/avr/include/util/delay.h ****   __STDC_HOSTED__
 172:/usr/local/Cellar/avr-gcc/6.2.0/avr/include/util/delay.h **** 	uint32_t __ticks_dc;
 173:/usr/local/Cellar/avr-gcc/6.2.0/avr/include/util/delay.h **** 	extern void __builtin_avr_delay_cycles(unsigned long);
 174:/usr/local/Cellar/avr-gcc/6.2.0/avr/include/util/delay.h **** 	__tmp = ((F_CPU) / 1e3) * __ms;
 175:/usr/local/Cellar/avr-gcc/6.2.0/avr/include/util/delay.h **** 
 176:/usr/local/Cellar/avr-gcc/6.2.0/avr/include/util/delay.h **** 	#if defined(__DELAY_ROUND_DOWN__)
 177:/usr/local/Cellar/avr-gcc/6.2.0/avr/include/util/delay.h **** 		__ticks_dc = (uint32_t)fabs(__tmp);
 178:/usr/local/Cellar/avr-gcc/6.2.0/avr/include/util/delay.h **** 
 179:/usr/local/Cellar/avr-gcc/6.2.0/avr/include/util/delay.h **** 	#elif defined(__DELAY_ROUND_CLOSEST__)
 180:/usr/local/Cellar/avr-gcc/6.2.0/avr/include/util/delay.h **** 		__ticks_dc = (uint32_t)(fabs(__tmp)+0.5);
 181:/usr/local/Cellar/avr-gcc/6.2.0/avr/include/util/delay.h **** 
 182:/usr/local/Cellar/avr-gcc/6.2.0/avr/include/util/delay.h **** 	#else
 183:/usr/local/Cellar/avr-gcc/6.2.0/avr/include/util/delay.h **** 		//round up by default
 184:/usr/local/Cellar/avr-gcc/6.2.0/avr/include/util/delay.h **** 		__ticks_dc = (uint32_t)(ceil(fabs(__tmp)));
 185:/usr/local/Cellar/avr-gcc/6.2.0/avr/include/util/delay.h **** 	#endif
 186:/usr/local/Cellar/avr-gcc/6.2.0/avr/include/util/delay.h **** 
 187:/usr/local/Cellar/avr-gcc/6.2.0/avr/include/util/delay.h **** 	__builtin_avr_delay_cycles(__ticks_dc);
 188:/usr/local/Cellar/avr-gcc/6.2.0/avr/include/util/delay.h **** 
 189:/usr/local/Cellar/avr-gcc/6.2.0/avr/include/util/delay.h **** #else
 190:/usr/local/Cellar/avr-gcc/6.2.0/avr/include/util/delay.h **** 	uint16_t __ticks;
 191:/usr/local/Cellar/avr-gcc/6.2.0/avr/include/util/delay.h **** 	__tmp = ((F_CPU) / 4e3) * __ms;
 192:/usr/local/Cellar/avr-gcc/6.2.0/avr/include/util/delay.h **** 	if (__tmp < 1.0)
 193:/usr/local/Cellar/avr-gcc/6.2.0/avr/include/util/delay.h **** 		__ticks = 1;
 194:/usr/local/Cellar/avr-gcc/6.2.0/avr/include/util/delay.h **** 	else if (__tmp > 65535)
 195:/usr/local/Cellar/avr-gcc/6.2.0/avr/include/util/delay.h **** 	{
 196:/usr/local/Cellar/avr-gcc/6.2.0/avr/include/util/delay.h **** 		//	__ticks = requested delay in 1/10 ms
 197:/usr/local/Cellar/avr-gcc/6.2.0/avr/include/util/delay.h **** 		__ticks = (uint16_t) (__ms * 10.0);
 198:/usr/local/Cellar/avr-gcc/6.2.0/avr/include/util/delay.h **** 		while(__ticks)
 199:/usr/local/Cellar/avr-gcc/6.2.0/avr/include/util/delay.h **** 		{
 200:/usr/local/Cellar/avr-gcc/6.2.0/avr/include/util/delay.h **** 			// wait 1/10 ms
 201:/usr/local/Cellar/avr-gcc/6.2.0/avr/include/util/delay.h **** 			_delay_loop_2(((F_CPU) / 4e3) / 10);
 202:/usr/local/Cellar/avr-gcc/6.2.0/avr/include/util/delay.h **** 			__ticks --;
 203:/usr/local/Cellar/avr-gcc/6.2.0/avr/include/util/delay.h **** 		}
 204:/usr/local/Cellar/avr-gcc/6.2.0/avr/include/util/delay.h **** 		return;
 205:/usr/local/Cellar/avr-gcc/6.2.0/avr/include/util/delay.h **** 	}
 206:/usr/local/Cellar/avr-gcc/6.2.0/avr/include/util/delay.h **** 	else
 207:/usr/local/Cellar/avr-gcc/6.2.0/avr/include/util/delay.h **** 		__ticks = (uint16_t)__tmp;
 208:/usr/local/Cellar/avr-gcc/6.2.0/avr/include/util/delay.h **** 	_delay_loop_2(__ticks);
 209:/usr/local/Cellar/avr-gcc/6.2.0/avr/include/util/delay.h **** #endif
 210:/usr/local/Cellar/avr-gcc/6.2.0/avr/include/util/delay.h **** }
 211:/usr/local/Cellar/avr-gcc/6.2.0/avr/include/util/delay.h **** 
 212:/usr/local/Cellar/avr-gcc/6.2.0/avr/include/util/delay.h **** /**
 213:/usr/local/Cellar/avr-gcc/6.2.0/avr/include/util/delay.h ****    \ingroup util_delay
 214:/usr/local/Cellar/avr-gcc/6.2.0/avr/include/util/delay.h **** 
 215:/usr/local/Cellar/avr-gcc/6.2.0/avr/include/util/delay.h ****    Perform a delay of \c __us microseconds, using _delay_loop_1().
 216:/usr/local/Cellar/avr-gcc/6.2.0/avr/include/util/delay.h **** 
 217:/usr/local/Cellar/avr-gcc/6.2.0/avr/include/util/delay.h ****    The macro F_CPU is supposed to be defined to a
 218:/usr/local/Cellar/avr-gcc/6.2.0/avr/include/util/delay.h ****    constant defining the CPU clock frequency (in Hertz).
 219:/usr/local/Cellar/avr-gcc/6.2.0/avr/include/util/delay.h **** 
 220:/usr/local/Cellar/avr-gcc/6.2.0/avr/include/util/delay.h ****    The maximal possible delay is 768 us / F_CPU in MHz.
 221:/usr/local/Cellar/avr-gcc/6.2.0/avr/include/util/delay.h **** 
 222:/usr/local/Cellar/avr-gcc/6.2.0/avr/include/util/delay.h ****    If the user requests a delay greater than the maximal possible one,
 223:/usr/local/Cellar/avr-gcc/6.2.0/avr/include/util/delay.h ****    _delay_us() will automatically call _delay_ms() instead.  The user
 224:/usr/local/Cellar/avr-gcc/6.2.0/avr/include/util/delay.h ****    will not be informed about this case.
 225:/usr/local/Cellar/avr-gcc/6.2.0/avr/include/util/delay.h **** 
 226:/usr/local/Cellar/avr-gcc/6.2.0/avr/include/util/delay.h ****    If the avr-gcc toolchain has __builtin_avr_delay_cycles()
 227:/usr/local/Cellar/avr-gcc/6.2.0/avr/include/util/delay.h ****    support, maximal possible delay is 4294967.295 us/ F_CPU in MHz. For
 228:/usr/local/Cellar/avr-gcc/6.2.0/avr/include/util/delay.h ****    values greater than the maximal possible delay, overflow results in
 229:/usr/local/Cellar/avr-gcc/6.2.0/avr/include/util/delay.h ****    no delay i.e., 0us.
 230:/usr/local/Cellar/avr-gcc/6.2.0/avr/include/util/delay.h **** 
 231:/usr/local/Cellar/avr-gcc/6.2.0/avr/include/util/delay.h ****    Conversion of \c __us into clock cycles may not always result in
 232:/usr/local/Cellar/avr-gcc/6.2.0/avr/include/util/delay.h ****    integer.  By default, the clock cycles rounded up to next
 233:/usr/local/Cellar/avr-gcc/6.2.0/avr/include/util/delay.h ****    integer. This ensures that the user gets at least \c __us
 234:/usr/local/Cellar/avr-gcc/6.2.0/avr/include/util/delay.h ****    microseconds of delay.
 235:/usr/local/Cellar/avr-gcc/6.2.0/avr/include/util/delay.h **** 
 236:/usr/local/Cellar/avr-gcc/6.2.0/avr/include/util/delay.h ****    Alternatively, by defining the macro \c __DELAY_ROUND_DOWN__, or
 237:/usr/local/Cellar/avr-gcc/6.2.0/avr/include/util/delay.h ****    \c __DELAY_ROUND_CLOSEST__, before including this header file, the
 238:/usr/local/Cellar/avr-gcc/6.2.0/avr/include/util/delay.h ****    algorithm can be made to round down, or round to closest integer,
 239:/usr/local/Cellar/avr-gcc/6.2.0/avr/include/util/delay.h ****    respectively.
 240:/usr/local/Cellar/avr-gcc/6.2.0/avr/include/util/delay.h **** 
 241:/usr/local/Cellar/avr-gcc/6.2.0/avr/include/util/delay.h ****    \note
 242:/usr/local/Cellar/avr-gcc/6.2.0/avr/include/util/delay.h **** 
 243:/usr/local/Cellar/avr-gcc/6.2.0/avr/include/util/delay.h ****    The implementation of _delay_ms() based on
 244:/usr/local/Cellar/avr-gcc/6.2.0/avr/include/util/delay.h ****    __builtin_avr_delay_cycles() is not backward compatible with older
 245:/usr/local/Cellar/avr-gcc/6.2.0/avr/include/util/delay.h ****    implementations.  In order to get functionality backward compatible
 246:/usr/local/Cellar/avr-gcc/6.2.0/avr/include/util/delay.h ****    with previous versions, the macro \c __DELAY_BACKWARD_COMPATIBLE__
 247:/usr/local/Cellar/avr-gcc/6.2.0/avr/include/util/delay.h ****    must be defined before including this header file. Also, the
 248:/usr/local/Cellar/avr-gcc/6.2.0/avr/include/util/delay.h ****    backward compatible algorithm will be chosen if the code is
 249:/usr/local/Cellar/avr-gcc/6.2.0/avr/include/util/delay.h ****    compiled in a <em>freestanding environment</em> (GCC option
 250:/usr/local/Cellar/avr-gcc/6.2.0/avr/include/util/delay.h ****    \c -ffreestanding), as the math functions required for rounding are
 251:/usr/local/Cellar/avr-gcc/6.2.0/avr/include/util/delay.h ****    not available to the compiler then.
 252:/usr/local/Cellar/avr-gcc/6.2.0/avr/include/util/delay.h **** 
 253:/usr/local/Cellar/avr-gcc/6.2.0/avr/include/util/delay.h ****  */
 254:/usr/local/Cellar/avr-gcc/6.2.0/avr/include/util/delay.h **** void
 255:/usr/local/Cellar/avr-gcc/6.2.0/avr/include/util/delay.h **** _delay_us(double __us)
 256:/usr/local/Cellar/avr-gcc/6.2.0/avr/include/util/delay.h **** {
 257:/usr/local/Cellar/avr-gcc/6.2.0/avr/include/util/delay.h **** 	double __tmp ;
 258:/usr/local/Cellar/avr-gcc/6.2.0/avr/include/util/delay.h **** #if __HAS_DELAY_CYCLES && defined(__OPTIMIZE__) && \
 259:/usr/local/Cellar/avr-gcc/6.2.0/avr/include/util/delay.h ****   !defined(__DELAY_BACKWARD_COMPATIBLE__) &&	   \
 260:/usr/local/Cellar/avr-gcc/6.2.0/avr/include/util/delay.h ****   __STDC_HOSTED__
 261:/usr/local/Cellar/avr-gcc/6.2.0/avr/include/util/delay.h **** 	uint32_t __ticks_dc;
 262:/usr/local/Cellar/avr-gcc/6.2.0/avr/include/util/delay.h **** 	extern void __builtin_avr_delay_cycles(unsigned long);
 263:/usr/local/Cellar/avr-gcc/6.2.0/avr/include/util/delay.h **** 	__tmp = ((F_CPU) / 1e6) * __us;
 264:/usr/local/Cellar/avr-gcc/6.2.0/avr/include/util/delay.h **** 
 265:/usr/local/Cellar/avr-gcc/6.2.0/avr/include/util/delay.h **** 	#if defined(__DELAY_ROUND_DOWN__)
 266:/usr/local/Cellar/avr-gcc/6.2.0/avr/include/util/delay.h **** 		__ticks_dc = (uint32_t)fabs(__tmp);
 267:/usr/local/Cellar/avr-gcc/6.2.0/avr/include/util/delay.h **** 
 268:/usr/local/Cellar/avr-gcc/6.2.0/avr/include/util/delay.h **** 	#elif defined(__DELAY_ROUND_CLOSEST__)
 269:/usr/local/Cellar/avr-gcc/6.2.0/avr/include/util/delay.h **** 		__ticks_dc = (uint32_t)(fabs(__tmp)+0.5);
 270:/usr/local/Cellar/avr-gcc/6.2.0/avr/include/util/delay.h **** 
 271:/usr/local/Cellar/avr-gcc/6.2.0/avr/include/util/delay.h **** 	#else
 272:/usr/local/Cellar/avr-gcc/6.2.0/avr/include/util/delay.h **** 		//round up by default
 273:/usr/local/Cellar/avr-gcc/6.2.0/avr/include/util/delay.h **** 		__ticks_dc = (uint32_t)(ceil(fabs(__tmp)));
 274:/usr/local/Cellar/avr-gcc/6.2.0/avr/include/util/delay.h **** 	#endif
 275:/usr/local/Cellar/avr-gcc/6.2.0/avr/include/util/delay.h **** 
 276:/usr/local/Cellar/avr-gcc/6.2.0/avr/include/util/delay.h **** 	__builtin_avr_delay_cycles(__ticks_dc);
 137               	.LM3:
 138 0006 EFEC      		ldi r30,lo8(1999)
 139 0008 F7E0      		ldi r31,hi8(1999)
 140 000a 3197      	1:	sbiw r30,1
 141 000c 01F4      		brne 1b
 142 000e 00C0      		rjmp .
 143 0010 0000      		nop
 144               	.LBE90:
 145               	.LBE89:
 147               	.Ltext2:
 100:/Users/kevinKuwata1/Documents/xcode/ECEN1310Final/Mifare_SERVO/Mifare_SERVO/main.c ****     _delay_us(1000);
 101:/Users/kevinKuwata1/Documents/xcode/ECEN1310Final/Mifare_SERVO/Mifare_SERVO/main.c ****     PORTC   ^=BV(5);
 149               	.LM4:
 150 0012 88B1      		in r24,0x8
 151 0014 8927      		eor r24,r25
 152 0016 88B9      		out 0x8,r24
 153               	.LBB91:
 154               	.LBB92:
 156               	.Ltext3:
 158               	.LM5:
 159 0018 8FE6      		ldi r24,lo8(-27537)
 160 001a 94E9      		ldi r25,hi8(-27537)
 161 001c 0197      	1:	sbiw r24,1
 162 001e 01F4      		brne 1b
 163 0020 00C0      		rjmp .
 164 0022 0000      		nop
 165 0024 0895      		ret
 166               	.LBE92:
 167               	.LBE91:
 169               	.Lscope1:
 171               	.global	initLED
 173               	initLED:
 175               	.Ltext4:
 102:/Users/kevinKuwata1/Documents/xcode/ECEN1310Final/Mifare_SERVO/Mifare_SERVO/main.c ****     _delay_us(19000); //remember that total period is 2ms or 2k micros and you need to do it this w
 103:/Users/kevinKuwata1/Documents/xcode/ECEN1310Final/Mifare_SERVO/Mifare_SERVO/main.c ****     
 104:/Users/kevinKuwata1/Documents/xcode/ECEN1310Final/Mifare_SERVO/Mifare_SERVO/main.c **** }
 105:/Users/kevinKuwata1/Documents/xcode/ECEN1310Final/Mifare_SERVO/Mifare_SERVO/main.c **** 
 106:/Users/kevinKuwata1/Documents/xcode/ECEN1310Final/Mifare_SERVO/Mifare_SERVO/main.c **** void initLED(void){
 177               	.LM6:
 178               	.LFBB2:
 179               	/* prologue: function */
 180               	/* frame size = 0 */
 181               	/* stack size = 0 */
 182               	.L__stack_usage = 0
 107:/Users/kevinKuwata1/Documents/xcode/ECEN1310Final/Mifare_SERVO/Mifare_SERVO/main.c ****     DDRC = BV(ledG);
 184               	.LM7:
 185 0026 24E0      		ldi r18,lo8(4)
 186 0028 27B9      		out 0x7,r18
 108:/Users/kevinKuwata1/Documents/xcode/ECEN1310Final/Mifare_SERVO/Mifare_SERVO/main.c ****     DDRC = BV(ledR); //output
 188               	.LM8:
 189 002a 92E0      		ldi r25,lo8(2)
 190 002c 97B9      		out 0x7,r25
 191               	.LBB93:
 192               	.LBB94:
 194               	.Ltext5:
 187:/usr/local/Cellar/avr-gcc/6.2.0/avr/include/util/delay.h **** 
 196               	.LM9:
 197 002e 3FEF      		ldi r19,lo8(479999)
 198 0030 42E5      		ldi r20,hi8(479999)
 199 0032 87E0      		ldi r24,hlo8(479999)
 200 0034 3150      	1:	subi r19,1
 201 0036 4040      		sbci r20,0
 202 0038 8040      		sbci r24,0
 203 003a 01F4      		brne 1b
 204 003c 00C0      		rjmp .
 205 003e 0000      		nop
 206               	.LBE94:
 207               	.LBE93:
 209               	.Ltext6:
 109:/Users/kevinKuwata1/Documents/xcode/ECEN1310Final/Mifare_SERVO/Mifare_SERVO/main.c **** 
 110:/Users/kevinKuwata1/Documents/xcode/ECEN1310Final/Mifare_SERVO/Mifare_SERVO/main.c ****     _delay_ms(300);
 111:/Users/kevinKuwata1/Documents/xcode/ECEN1310Final/Mifare_SERVO/Mifare_SERVO/main.c ****     PORTC = BV(ledG);
 211               	.LM10:
 212 0040 28B9      		out 0x8,r18
 213               	.LBB95:
 214               	.LBB96:
 216               	.Ltext7:
 187:/usr/local/Cellar/avr-gcc/6.2.0/avr/include/util/delay.h **** 
 218               	.LM11:
 219 0042 3FEF      		ldi r19,lo8(319999)
 220 0044 41EE      		ldi r20,hi8(319999)
 221 0046 84E0      		ldi r24,hlo8(319999)
 222 0048 3150      	1:	subi r19,1
 223 004a 4040      		sbci r20,0
 224 004c 8040      		sbci r24,0
 225 004e 01F4      		brne 1b
 226 0050 00C0      		rjmp .
 227 0052 0000      		nop
 228               	.LBE96:
 229               	.LBE95:
 231               	.Ltext8:
 112:/Users/kevinKuwata1/Documents/xcode/ECEN1310Final/Mifare_SERVO/Mifare_SERVO/main.c ****     _delay_ms(200);
 113:/Users/kevinKuwata1/Documents/xcode/ECEN1310Final/Mifare_SERVO/Mifare_SERVO/main.c ****     PORTC ^= BV(ledG);
 233               	.LM12:
 234 0054 88B1      		in r24,0x8
 235 0056 8227      		eor r24,r18
 236 0058 88B9      		out 0x8,r24
 237               	.LBB97:
 238               	.LBB98:
 240               	.Ltext9:
 187:/usr/local/Cellar/avr-gcc/6.2.0/avr/include/util/delay.h **** 
 242               	.LM13:
 243 005a 2FEF      		ldi r18,lo8(479999)
 244 005c 32E5      		ldi r19,hi8(479999)
 245 005e 47E0      		ldi r20,hlo8(479999)
 246 0060 2150      	1:	subi r18,1
 247 0062 3040      		sbci r19,0
 248 0064 4040      		sbci r20,0
 249 0066 01F4      		brne 1b
 250 0068 00C0      		rjmp .
 251 006a 0000      		nop
 252               	.LBE98:
 253               	.LBE97:
 255               	.Ltext10:
 114:/Users/kevinKuwata1/Documents/xcode/ECEN1310Final/Mifare_SERVO/Mifare_SERVO/main.c ****     
 115:/Users/kevinKuwata1/Documents/xcode/ECEN1310Final/Mifare_SERVO/Mifare_SERVO/main.c ****     _delay_ms(300);
 116:/Users/kevinKuwata1/Documents/xcode/ECEN1310Final/Mifare_SERVO/Mifare_SERVO/main.c ****     PORTC = BV(ledR);
 257               	.LM14:
 258 006c 98B9      		out 0x8,r25
 259               	.LBB99:
 260               	.LBB100:
 262               	.Ltext11:
 187:/usr/local/Cellar/avr-gcc/6.2.0/avr/include/util/delay.h **** 
 264               	.LM15:
 265 006e 8FEF      		ldi r24,lo8(319999)
 266 0070 21EE      		ldi r18,hi8(319999)
 267 0072 34E0      		ldi r19,hlo8(319999)
 268 0074 8150      	1:	subi r24,1
 269 0076 2040      		sbci r18,0
 270 0078 3040      		sbci r19,0
 271 007a 01F4      		brne 1b
 272 007c 00C0      		rjmp .
 273 007e 0000      		nop
 274               	.LBE100:
 275               	.LBE99:
 277               	.Ltext12:
 117:/Users/kevinKuwata1/Documents/xcode/ECEN1310Final/Mifare_SERVO/Mifare_SERVO/main.c ****     _delay_ms(200);
 118:/Users/kevinKuwata1/Documents/xcode/ECEN1310Final/Mifare_SERVO/Mifare_SERVO/main.c ****     PORTC ^= BV(ledR);
 279               	.LM16:
 280 0080 88B1      		in r24,0x8
 281 0082 8927      		eor r24,r25
 282 0084 88B9      		out 0x8,r24
 283 0086 0895      		ret
 285               	.Lscope2:
 289               	.global	addQ
 291               	addQ:
 119:/Users/kevinKuwata1/Documents/xcode/ECEN1310Final/Mifare_SERVO/Mifare_SERVO/main.c ****     
 120:/Users/kevinKuwata1/Documents/xcode/ECEN1310Final/Mifare_SERVO/Mifare_SERVO/main.c ****     
 121:/Users/kevinKuwata1/Documents/xcode/ECEN1310Final/Mifare_SERVO/Mifare_SERVO/main.c **** }
 122:/Users/kevinKuwata1/Documents/xcode/ECEN1310Final/Mifare_SERVO/Mifare_SERVO/main.c **** 
 123:/Users/kevinKuwata1/Documents/xcode/ECEN1310Final/Mifare_SERVO/Mifare_SERVO/main.c **** int addQ(int str[], int ADD[]){
 293               	.LM17:
 294               	.LFBB3:
 295               	/* prologue: function */
 296               	/* frame size = 0 */
 297               	/* stack size = 0 */
 298               	.L__stack_usage = 0
 299 0088 DC01      		movw r26,r24
 300 008a 1296      		adiw r26,2
 301 008c FB01      		movw r30,r22
 302 008e 3296      		adiw r30,2
 303 0090 0C96      		adiw r24,12
 304               	.L5:
 305               	.LBB101:
 124:/Users/kevinKuwata1/Documents/xcode/ECEN1310Final/Mifare_SERVO/Mifare_SERVO/main.c ****     for(int i=1; i<=5; i++){
 125:/Users/kevinKuwata1/Documents/xcode/ECEN1310Final/Mifare_SERVO/Mifare_SERVO/main.c ****         if(str[i] != ADD[i])
 307               	.LM18:
 308 0092 4D91      		ld r20,X+
 309 0094 5D91      		ld r21,X+
 310 0096 2191      		ld r18,Z+
 311 0098 3191      		ld r19,Z+
 312 009a 4217      		cp r20,r18
 313 009c 5307      		cpc r21,r19
 314 009e 01F4      		brne .L6
 124:/Users/kevinKuwata1/Documents/xcode/ECEN1310Final/Mifare_SERVO/Mifare_SERVO/main.c ****     for(int i=1; i<=5; i++){
 316               	.LM19:
 317 00a0 A817      		cp r26,r24
 318 00a2 B907      		cpc r27,r25
 319 00a4 01F4      		brne .L5
 320               	.LBE101:
 126:/Users/kevinKuwata1/Documents/xcode/ECEN1310Final/Mifare_SERVO/Mifare_SERVO/main.c ****             return -1;
 127:/Users/kevinKuwata1/Documents/xcode/ECEN1310Final/Mifare_SERVO/Mifare_SERVO/main.c ****     }
 128:/Users/kevinKuwata1/Documents/xcode/ECEN1310Final/Mifare_SERVO/Mifare_SERVO/main.c ****     return 0;
 322               	.LM20:
 323 00a6 80E0      		ldi r24,0
 324 00a8 90E0      		ldi r25,0
 325               	.LBB102:
 326 00aa 0895      		ret
 327               	.L6:
 126:/Users/kevinKuwata1/Documents/xcode/ECEN1310Final/Mifare_SERVO/Mifare_SERVO/main.c ****             return -1;
 329               	.LM21:
 330 00ac 8FEF      		ldi r24,lo8(-1)
 331 00ae 9FEF      		ldi r25,lo8(-1)
 332               	.LBE102:
 129:/Users/kevinKuwata1/Documents/xcode/ECEN1310Final/Mifare_SERVO/Mifare_SERVO/main.c **** }
 334               	.LM22:
 335 00b0 0895      		ret
 337               	.Lscope3:
 341               	.global	addTag
 343               	addTag:
 130:/Users/kevinKuwata1/Documents/xcode/ECEN1310Final/Mifare_SERVO/Mifare_SERVO/main.c **** 
 131:/Users/kevinKuwata1/Documents/xcode/ECEN1310Final/Mifare_SERVO/Mifare_SERVO/main.c **** unsigned int EEMEM tag[5]= {0,0,0,0,0};
 132:/Users/kevinKuwata1/Documents/xcode/ECEN1310Final/Mifare_SERVO/Mifare_SERVO/main.c **** //unsigned int EEMEM tag2[5]= {0,0,0,0,0};
 133:/Users/kevinKuwata1/Documents/xcode/ECEN1310Final/Mifare_SERVO/Mifare_SERVO/main.c **** unsigned int ram_tag[5]; //this is where we write the read tag to the stack will be str[] array.
 134:/Users/kevinKuwata1/Documents/xcode/ECEN1310Final/Mifare_SERVO/Mifare_SERVO/main.c **** 
 135:/Users/kevinKuwata1/Documents/xcode/ECEN1310Final/Mifare_SERVO/Mifare_SERVO/main.c **** //to do int tagNumber)
 136:/Users/kevinKuwata1/Documents/xcode/ECEN1310Final/Mifare_SERVO/Mifare_SERVO/main.c **** void addTag(int str[], int tagNumber){
 345               	.LM23:
 346               	.LFBB4:
 347 00b2 DF92      		push r13
 348 00b4 EF92      		push r14
 349 00b6 FF92      		push r15
 350 00b8 0F93      		push r16
 351 00ba 1F93      		push r17
 352 00bc CF93      		push r28
 353 00be DF93      		push r29
 354               	/* prologue: function */
 355               	/* frame size = 0 */
 356               	/* stack size = 7 */
 357               	.L__stack_usage = 7
 137:/Users/kevinKuwata1/Documents/xcode/ECEN1310Final/Mifare_SERVO/Mifare_SERVO/main.c ****     if(tagNumber ==1){
 359               	.LM24:
 360 00c0 6130      		cpi r22,1
 361 00c2 7105      		cpc r23,__zero_reg__
 362 00c4 01F4      		brne .L9
 363 00c6 8C01      		movw r16,r24
 364 00c8 0E5F      		subi r16,-2
 365 00ca 1F4F      		sbci r17,-1
 366 00cc 30E0      		ldi r19,lo8(tag1+1)
 367 00ce E32E      		mov r14,r19
 368 00d0 30E0      		ldi r19,hi8(tag1+1)
 369 00d2 F32E      		mov r15,r19
 370 00d4 EC01      		movw r28,r24
 371 00d6 2C96      		adiw r28,12
 372               	.LBB103:
 138:/Users/kevinKuwata1/Documents/xcode/ECEN1310Final/Mifare_SERVO/Mifare_SERVO/main.c ****         for(int i=1; i<=5; i++){
 139:/Users/kevinKuwata1/Documents/xcode/ECEN1310Final/Mifare_SERVO/Mifare_SERVO/main.c ****             write_eeprom_word(tag1[i], str[i]);
 140:/Users/kevinKuwata1/Documents/xcode/ECEN1310Final/Mifare_SERVO/Mifare_SERVO/main.c ****             PORTC = BV(ledG);
 374               	.LM25:
 375 00d8 44E0      		ldi r20,lo8(4)
 376 00da D42E      		mov r13,r20
 377               	.L10:
 139:/Users/kevinKuwata1/Documents/xcode/ECEN1310Final/Mifare_SERVO/Mifare_SERVO/main.c ****             PORTC = BV(ledG);
 379               	.LM26:
 380 00dc F801      		movw r30,r16
 381 00de 6191      		ld r22,Z+
 382 00e0 7191      		ld r23,Z+
 383 00e2 8F01      		movw r16,r30
 384 00e4 F701      		movw r30,r14
 385 00e6 8191      		ld r24,Z+
 386 00e8 7F01      		movw r14,r30
 387 00ea 90E0      		ldi r25,0
 388 00ec 0E94 0000 		call eeprom_write_word
 390               	.LM27:
 391 00f0 D8B8      		out 0x8,r13
 392               	.LBB104:
 393               	.LBB105:
 395               	.Ltext13:
 187:/usr/local/Cellar/avr-gcc/6.2.0/avr/include/util/delay.h **** 
 397               	.LM28:
 398 00f2 FFEF      		ldi r31,lo8(159999)
 399 00f4 20E7      		ldi r18,hi8(159999)
 400 00f6 82E0      		ldi r24,hlo8(159999)
 401 00f8 F150      	1:	subi r31,1
 402 00fa 2040      		sbci r18,0
 403 00fc 8040      		sbci r24,0
 404 00fe 01F4      		brne 1b
 405 0100 00C0      		rjmp .
 406 0102 0000      		nop
 407               	.LBE105:
 408               	.LBE104:
 410               	.Ltext14:
 138:/Users/kevinKuwata1/Documents/xcode/ECEN1310Final/Mifare_SERVO/Mifare_SERVO/main.c ****         for(int i=1; i<=5; i++){
 412               	.LM29:
 413 0104 C017      		cp r28,r16
 414 0106 D107      		cpc r29,r17
 415 0108 01F4      		brne .L10
 416               	.L8:
 417               	/* epilogue start */
 418               	.LBE103:
 141:/Users/kevinKuwata1/Documents/xcode/ECEN1310Final/Mifare_SERVO/Mifare_SERVO/main.c ****             _delay_ms(100);
 142:/Users/kevinKuwata1/Documents/xcode/ECEN1310Final/Mifare_SERVO/Mifare_SERVO/main.c ****         }
 143:/Users/kevinKuwata1/Documents/xcode/ECEN1310Final/Mifare_SERVO/Mifare_SERVO/main.c ****         tagNumber++;
 144:/Users/kevinKuwata1/Documents/xcode/ECEN1310Final/Mifare_SERVO/Mifare_SERVO/main.c ****     }
 145:/Users/kevinKuwata1/Documents/xcode/ECEN1310Final/Mifare_SERVO/Mifare_SERVO/main.c ****     else if(tagNumber ==2){
 146:/Users/kevinKuwata1/Documents/xcode/ECEN1310Final/Mifare_SERVO/Mifare_SERVO/main.c ****         for(int i=1; i<=5; i++){
 147:/Users/kevinKuwata1/Documents/xcode/ECEN1310Final/Mifare_SERVO/Mifare_SERVO/main.c ****             write_eeprom_word(tag2[i], str[i]);
 148:/Users/kevinKuwata1/Documents/xcode/ECEN1310Final/Mifare_SERVO/Mifare_SERVO/main.c ****         }
 149:/Users/kevinKuwata1/Documents/xcode/ECEN1310Final/Mifare_SERVO/Mifare_SERVO/main.c ****         tagNumber++; //incriment so we can keep track if we have room or not
 150:/Users/kevinKuwata1/Documents/xcode/ECEN1310Final/Mifare_SERVO/Mifare_SERVO/main.c ****     }
 151:/Users/kevinKuwata1/Documents/xcode/ECEN1310Final/Mifare_SERVO/Mifare_SERVO/main.c **** }
 420               	.LM30:
 421 010a DF91      		pop r29
 422 010c CF91      		pop r28
 423 010e 1F91      		pop r17
 424 0110 0F91      		pop r16
 425 0112 FF90      		pop r15
 426 0114 EF90      		pop r14
 427 0116 DF90      		pop r13
 428 0118 0895      		ret
 429               	.L9:
 145:/Users/kevinKuwata1/Documents/xcode/ECEN1310Final/Mifare_SERVO/Mifare_SERVO/main.c ****         for(int i=1; i<=5; i++){
 431               	.LM31:
 432 011a 6230      		cpi r22,2
 433 011c 7105      		cpc r23,__zero_reg__
 434 011e 01F4      		brne .L8
 435 0120 8C01      		movw r16,r24
 436 0122 0E5F      		subi r16,-2
 437 0124 1F4F      		sbci r17,-1
 438 0126 20E0      		ldi r18,lo8(tag2+1)
 439 0128 E22E      		mov r14,r18
 440 012a 20E0      		ldi r18,hi8(tag2+1)
 441 012c F22E      		mov r15,r18
 442 012e EC01      		movw r28,r24
 443 0130 2C96      		adiw r28,12
 444               	.L12:
 445               	.LBB106:
 147:/Users/kevinKuwata1/Documents/xcode/ECEN1310Final/Mifare_SERVO/Mifare_SERVO/main.c ****         }
 447               	.LM32:
 448 0132 F801      		movw r30,r16
 449 0134 6191      		ld r22,Z+
 450 0136 7191      		ld r23,Z+
 451 0138 8F01      		movw r16,r30
 452 013a F701      		movw r30,r14
 453 013c 8191      		ld r24,Z+
 454 013e 7F01      		movw r14,r30
 455 0140 90E0      		ldi r25,0
 456 0142 0E94 0000 		call eeprom_write_word
 146:/Users/kevinKuwata1/Documents/xcode/ECEN1310Final/Mifare_SERVO/Mifare_SERVO/main.c ****             write_eeprom_word(tag2[i], str[i]);
 458               	.LM33:
 459 0146 0C17      		cp r16,r28
 460 0148 1D07      		cpc r17,r29
 461 014a 01F4      		brne .L12
 462 014c 00C0      		rjmp .L8
 463               	.LBE106:
 465               	.Lscope4:
 467               	.global	open
 469               	open:
 152:/Users/kevinKuwata1/Documents/xcode/ECEN1310Final/Mifare_SERVO/Mifare_SERVO/main.c **** /*
 153:/Users/kevinKuwata1/Documents/xcode/ECEN1310Final/Mifare_SERVO/Mifare_SERVO/main.c **** void deleteTag(int str[]){
 154:/Users/kevinKuwata1/Documents/xcode/ECEN1310Final/Mifare_SERVO/Mifare_SERVO/main.c **** 
 155:/Users/kevinKuwata1/Documents/xcode/ECEN1310Final/Mifare_SERVO/Mifare_SERVO/main.c ****     for(int i=0; i<=4; i++){
 156:/Users/kevinKuwata1/Documents/xcode/ECEN1310Final/Mifare_SERVO/Mifare_SERVO/main.c ****         if(str[i] == DELETE[i]){
 157:/Users/kevinKuwata1/Documents/xcode/ECEN1310Final/Mifare_SERVO/Mifare_SERVO/main.c ****             deleteNext =1;
 158:/Users/kevinKuwata1/Documents/xcode/ECEN1310Final/Mifare_SERVO/Mifare_SERVO/main.c ****         }
 159:/Users/kevinKuwata1/Documents/xcode/ECEN1310Final/Mifare_SERVO/Mifare_SERVO/main.c ****         else
 160:/Users/kevinKuwata1/Documents/xcode/ECEN1310Final/Mifare_SERVO/Mifare_SERVO/main.c ****             deleteNext = 0;
 161:/Users/kevinKuwata1/Documents/xcode/ECEN1310Final/Mifare_SERVO/Mifare_SERVO/main.c ****         }
 162:/Users/kevinKuwata1/Documents/xcode/ECEN1310Final/Mifare_SERVO/Mifare_SERVO/main.c **** 
 163:/Users/kevinKuwata1/Documents/xcode/ECEN1310Final/Mifare_SERVO/Mifare_SERVO/main.c **** 
 164:/Users/kevinKuwata1/Documents/xcode/ECEN1310Final/Mifare_SERVO/Mifare_SERVO/main.c **** 
 165:/Users/kevinKuwata1/Documents/xcode/ECEN1310Final/Mifare_SERVO/Mifare_SERVO/main.c ****     for(int i=0; i<=4; i++){
 166:/Users/kevinKuwata1/Documents/xcode/ECEN1310Final/Mifare_SERVO/Mifare_SERVO/main.c ****         if(str[i] != tag1[i] || str[i] != tag2[i]){
 167:/Users/kevinKuwata1/Documents/xcode/ECEN1310Final/Mifare_SERVO/Mifare_SERVO/main.c ****             return; //not a tag in memory
 168:/Users/kevinKuwata1/Documents/xcode/ECEN1310Final/Mifare_SERVO/Mifare_SERVO/main.c ****         }
 169:/Users/kevinKuwata1/Documents/xcode/ECEN1310Final/Mifare_SERVO/Mifare_SERVO/main.c ****     }
 170:/Users/kevinKuwata1/Documents/xcode/ECEN1310Final/Mifare_SERVO/Mifare_SERVO/main.c ****     else
 171:/Users/kevinKuwata1/Documents/xcode/ECEN1310Final/Mifare_SERVO/Mifare_SERVO/main.c ****     {
 172:/Users/kevinKuwata1/Documents/xcode/ECEN1310Final/Mifare_SERVO/Mifare_SERVO/main.c ****         //delete all tags;
 173:/Users/kevinKuwata1/Documents/xcode/ECEN1310Final/Mifare_SERVO/Mifare_SERVO/main.c **** 
 174:/Users/kevinKuwata1/Documents/xcode/ECEN1310Final/Mifare_SERVO/Mifare_SERVO/main.c ****         for(int i=0; i<=4; i++){
 175:/Users/kevinKuwata1/Documents/xcode/ECEN1310Final/Mifare_SERVO/Mifare_SERVO/main.c ****             write_eeprom_word(tag1[i], 0);
 176:/Users/kevinKuwata1/Documents/xcode/ECEN1310Final/Mifare_SERVO/Mifare_SERVO/main.c ****           write_eeprom_word(tag2[i], 0);
 177:/Users/kevinKuwata1/Documents/xcode/ECEN1310Final/Mifare_SERVO/Mifare_SERVO/main.c ****         }//end of delete for loop
 178:/Users/kevinKuwata1/Documents/xcode/ECEN1310Final/Mifare_SERVO/Mifare_SERVO/main.c ****     }
 179:/Users/kevinKuwata1/Documents/xcode/ECEN1310Final/Mifare_SERVO/Mifare_SERVO/main.c ****     loadTags(); //to ensure new eeprom is loaded
 180:/Users/kevinKuwata1/Documents/xcode/ECEN1310Final/Mifare_SERVO/Mifare_SERVO/main.c ****     
 181:/Users/kevinKuwata1/Documents/xcode/ECEN1310Final/Mifare_SERVO/Mifare_SERVO/main.c **** }
 182:/Users/kevinKuwata1/Documents/xcode/ECEN1310Final/Mifare_SERVO/Mifare_SERVO/main.c **** 
 183:/Users/kevinKuwata1/Documents/xcode/ECEN1310Final/Mifare_SERVO/Mifare_SERVO/main.c **** */
 184:/Users/kevinKuwata1/Documents/xcode/ECEN1310Final/Mifare_SERVO/Mifare_SERVO/main.c **** 
 185:/Users/kevinKuwata1/Documents/xcode/ECEN1310Final/Mifare_SERVO/Mifare_SERVO/main.c **** int open(void){
 471               	.LM34:
 472               	.LFBB5:
 473               	/* prologue: function */
 474               	/* frame size = 0 */
 475               	/* stack size = 0 */
 476               	.L__stack_usage = 0
 186:/Users/kevinKuwata1/Documents/xcode/ECEN1310Final/Mifare_SERVO/Mifare_SERVO/main.c ****     
 187:/Users/kevinKuwata1/Documents/xcode/ECEN1310Final/Mifare_SERVO/Mifare_SERVO/main.c ****     PORTC = (BV(5));
 478               	.LM35:
 479 014e 90E2      		ldi r25,lo8(32)
 480 0150 98B9      		out 0x8,r25
 481               	.LBB107:
 482               	.LBB108:
 484               	.Ltext15:
 486               	.LM36:
 487 0152 EFE9      		ldi r30,lo8(3999)
 488 0154 FFE0      		ldi r31,hi8(3999)
 489 0156 3197      	1:	sbiw r30,1
 490 0158 01F4      		brne 1b
 491 015a 00C0      		rjmp .
 492 015c 0000      		nop
 493               	.LBE108:
 494               	.LBE107:
 496               	.Ltext16:
 188:/Users/kevinKuwata1/Documents/xcode/ECEN1310Final/Mifare_SERVO/Mifare_SERVO/main.c ****     _delay_us(2000);
 189:/Users/kevinKuwata1/Documents/xcode/ECEN1310Final/Mifare_SERVO/Mifare_SERVO/main.c ****     PORTC  ^=BV(5);
 498               	.LM37:
 499 015e 88B1      		in r24,0x8
 500 0160 8927      		eor r24,r25
 501 0162 88B9      		out 0x8,r24
 502               	.LBB109:
 503               	.LBB110:
 505               	.Ltext17:
 507               	.LM38:
 508 0164 8FE9      		ldi r24,lo8(-29537)
 509 0166 9CE8      		ldi r25,hi8(-29537)
 510 0168 0197      	1:	sbiw r24,1
 511 016a 01F4      		brne 1b
 512 016c 00C0      		rjmp .
 513 016e 0000      		nop
 514               	.LBE110:
 515               	.LBE109:
 517               	.Ltext18:
 190:/Users/kevinKuwata1/Documents/xcode/ECEN1310Final/Mifare_SERVO/Mifare_SERVO/main.c ****     _delay_us(18000);
 191:/Users/kevinKuwata1/Documents/xcode/ECEN1310Final/Mifare_SERVO/Mifare_SERVO/main.c ****     
 192:/Users/kevinKuwata1/Documents/xcode/ECEN1310Final/Mifare_SERVO/Mifare_SERVO/main.c ****     return 1;
 193:/Users/kevinKuwata1/Documents/xcode/ECEN1310Final/Mifare_SERVO/Mifare_SERVO/main.c **** }
 519               	.LM39:
 520 0170 81E0      		ldi r24,lo8(1)
 521 0172 90E0      		ldi r25,0
 522 0174 0895      		ret
 524               	.Lscope5:
 526               	.global	close
 528               	close:
 194:/Users/kevinKuwata1/Documents/xcode/ECEN1310Final/Mifare_SERVO/Mifare_SERVO/main.c **** 
 195:/Users/kevinKuwata1/Documents/xcode/ECEN1310Final/Mifare_SERVO/Mifare_SERVO/main.c **** int close(void){
 530               	.LM40:
 531               	.LFBB6:
 532               	/* prologue: function */
 533               	/* frame size = 0 */
 534               	/* stack size = 0 */
 535               	.L__stack_usage = 0
 196:/Users/kevinKuwata1/Documents/xcode/ECEN1310Final/Mifare_SERVO/Mifare_SERVO/main.c ****     //ToDo: need to update this
 197:/Users/kevinKuwata1/Documents/xcode/ECEN1310Final/Mifare_SERVO/Mifare_SERVO/main.c ****     //close sequence
 198:/Users/kevinKuwata1/Documents/xcode/ECEN1310Final/Mifare_SERVO/Mifare_SERVO/main.c ****     PORTC = (BV(5));
 537               	.LM41:
 538 0176 90E2      		ldi r25,lo8(32)
 539 0178 98B9      		out 0x8,r25
 540               	.LBB111:
 541               	.LBB112:
 543               	.Ltext19:
 545               	.LM42:
 546 017a EFEC      		ldi r30,lo8(1999)
 547 017c F7E0      		ldi r31,hi8(1999)
 548 017e 3197      	1:	sbiw r30,1
 549 0180 01F4      		brne 1b
 550 0182 00C0      		rjmp .
 551 0184 0000      		nop
 552               	.LBE112:
 553               	.LBE111:
 555               	.Ltext20:
 199:/Users/kevinKuwata1/Documents/xcode/ECEN1310Final/Mifare_SERVO/Mifare_SERVO/main.c ****     _delay_us(1000);
 200:/Users/kevinKuwata1/Documents/xcode/ECEN1310Final/Mifare_SERVO/Mifare_SERVO/main.c ****     PORTC   ^=BV(5);
 557               	.LM43:
 558 0186 88B1      		in r24,0x8
 559 0188 8927      		eor r24,r25
 560 018a 88B9      		out 0x8,r24
 561               	.LBB113:
 562               	.LBB114:
 564               	.Ltext21:
 566               	.LM44:
 567 018c 8FE6      		ldi r24,lo8(-27537)
 568 018e 94E9      		ldi r25,hi8(-27537)
 569 0190 0197      	1:	sbiw r24,1
 570 0192 01F4      		brne 1b
 571 0194 00C0      		rjmp .
 572 0196 0000      		nop
 573               	.LBE114:
 574               	.LBE113:
 576               	.Ltext22:
 201:/Users/kevinKuwata1/Documents/xcode/ECEN1310Final/Mifare_SERVO/Mifare_SERVO/main.c ****     _delay_us(19000);
 202:/Users/kevinKuwata1/Documents/xcode/ECEN1310Final/Mifare_SERVO/Mifare_SERVO/main.c ****     return 1;
 203:/Users/kevinKuwata1/Documents/xcode/ECEN1310Final/Mifare_SERVO/Mifare_SERVO/main.c **** }
 578               	.LM45:
 579 0198 81E0      		ldi r24,lo8(1)
 580 019a 90E0      		ldi r25,0
 581 019c 0895      		ret
 583               	.Lscope6:
 585               	.global	initButton
 587               	initButton:
 204:/Users/kevinKuwata1/Documents/xcode/ECEN1310Final/Mifare_SERVO/Mifare_SERVO/main.c **** /* === === === END SERVO SETUP === === === */
 205:/Users/kevinKuwata1/Documents/xcode/ECEN1310Final/Mifare_SERVO/Mifare_SERVO/main.c **** 
 206:/Users/kevinKuwata1/Documents/xcode/ECEN1310Final/Mifare_SERVO/Mifare_SERVO/main.c **** 
 207:/Users/kevinKuwata1/Documents/xcode/ECEN1310Final/Mifare_SERVO/Mifare_SERVO/main.c **** void initButton(void){
 589               	.LM46:
 590               	.LFBB7:
 591               	/* prologue: function */
 592               	/* frame size = 0 */
 593               	/* stack size = 0 */
 594               	.L__stack_usage = 0
 208:/Users/kevinKuwata1/Documents/xcode/ECEN1310Final/Mifare_SERVO/Mifare_SERVO/main.c ****     // uint8_t button = 3;
 209:/Users/kevinKuwata1/Documents/xcode/ECEN1310Final/Mifare_SERVO/Mifare_SERVO/main.c ****     //uint8_t ledG = 2;
 210:/Users/kevinKuwata1/Documents/xcode/ECEN1310Final/Mifare_SERVO/Mifare_SERVO/main.c ****     DDRC ^= BV(button); //set as input
 596               	.LM47:
 597 019e 97B1      		in r25,0x7
 598 01a0 21E0      		ldi r18,lo8(1)
 599 01a2 9227      		eor r25,r18
 600 01a4 97B9      		out 0x7,r25
 211:/Users/kevinKuwata1/Documents/xcode/ECEN1310Final/Mifare_SERVO/Mifare_SERVO/main.c ****     DDRC |= BV(ledG); //set output
 602               	.LM48:
 603 01a6 3A9A      		sbi 0x7,2
 212:/Users/kevinKuwata1/Documents/xcode/ECEN1310Final/Mifare_SERVO/Mifare_SERVO/main.c ****     
 213:/Users/kevinKuwata1/Documents/xcode/ECEN1310Final/Mifare_SERVO/Mifare_SERVO/main.c ****     PORTC ^= BV(button); // set low
 605               	.LM49:
 606 01a8 88B1      		in r24,0x8
 607 01aa 8227      		eor r24,r18
 608 01ac 88B9      		out 0x8,r24
 609 01ae 0895      		ret
 611               	.Lscope7:
 612               		.section	.rodata.str1.1,"aMS",@progbits,1
 613               	.LC0:
 614 0000 6275 7474 		.string	"button press"
 614      6F6E 2070 
 614      7265 7373 
 614      00
 615               		.text
 617               	.global	buttonRead
 619               	buttonRead:
 214:/Users/kevinKuwata1/Documents/xcode/ECEN1310Final/Mifare_SERVO/Mifare_SERVO/main.c **** }
 215:/Users/kevinKuwata1/Documents/xcode/ECEN1310Final/Mifare_SERVO/Mifare_SERVO/main.c **** 
 216:/Users/kevinKuwata1/Documents/xcode/ECEN1310Final/Mifare_SERVO/Mifare_SERVO/main.c **** int buttonRead(void){
 621               	.LM50:
 622               	.LFBB8:
 623               	/* prologue: function */
 624               	/* frame size = 0 */
 625               	/* stack size = 0 */
 626               	.L__stack_usage = 0
 217:/Users/kevinKuwata1/Documents/xcode/ECEN1310Final/Mifare_SERVO/Mifare_SERVO/main.c ****     if(bit_is_clear(PINC, button)){
 628               	.LM51:
 629 01b0 3099      		sbic 0x6,0
 630 01b2 00C0      		rjmp .L20
 631               	.LBB123:
 632               	.LBB124:
 218:/Users/kevinKuwata1/Documents/xcode/ECEN1310Final/Mifare_SERVO/Mifare_SERVO/main.c ****         LCDClear();
 634               	.LM52:
 635 01b4 60E0      		ldi r22,0
 636 01b6 81E0      		ldi r24,lo8(1)
 637 01b8 0E94 0000 		call LCDByte
 638               	.LBB125:
 639               	.LBB126:
 641               	.Ltext23:
 187:/usr/local/Cellar/avr-gcc/6.2.0/avr/include/util/delay.h **** 
 643               	.LM53:
 644 01bc 2FEF      		ldi r18,lo8(63999)
 645 01be 89EF      		ldi r24,hi8(63999)
 646 01c0 90E0      		ldi r25,hlo8(63999)
 647 01c2 2150      	1:	subi r18,1
 648 01c4 8040      		sbci r24,0
 649 01c6 9040      		sbci r25,0
 650 01c8 01F4      		brne 1b
 651 01ca 00C0      		rjmp .
 652 01cc 0000      		nop
 653               	.LBE126:
 654               	.LBE125:
 656               	.Ltext24:
 219:/Users/kevinKuwata1/Documents/xcode/ECEN1310Final/Mifare_SERVO/Mifare_SERVO/main.c ****         _delay_ms(40);
 220:/Users/kevinKuwata1/Documents/xcode/ECEN1310Final/Mifare_SERVO/Mifare_SERVO/main.c ****         LCDWriteString("button press");
 658               	.LM54:
 659 01ce 80E0      		ldi r24,lo8(.LC0)
 660 01d0 90E0      		ldi r25,hi8(.LC0)
 661 01d2 0E94 0000 		call LCDWriteString
 221:/Users/kevinKuwata1/Documents/xcode/ECEN1310Final/Mifare_SERVO/Mifare_SERVO/main.c ****         open();
 663               	.LM55:
 664 01d6 0E94 0000 		call open
 665               	.LBB127:
 666               	.LBB128:
 668               	.Ltext25:
 187:/usr/local/Cellar/avr-gcc/6.2.0/avr/include/util/delay.h **** 
 670               	.LM56:
 671 01da 2FEF      		ldi r18,lo8(799999)
 672 01dc 84E3      		ldi r24,hi8(799999)
 673 01de 9CE0      		ldi r25,hlo8(799999)
 674 01e0 2150      	1:	subi r18,1
 675 01e2 8040      		sbci r24,0
 676 01e4 9040      		sbci r25,0
 677 01e6 01F4      		brne 1b
 678 01e8 00C0      		rjmp .
 679 01ea 0000      		nop
 680               	.LBE128:
 681               	.LBE127:
 683               	.Ltext26:
 222:/Users/kevinKuwata1/Documents/xcode/ECEN1310Final/Mifare_SERVO/Mifare_SERVO/main.c ****         _delay_ms(500);
 223:/Users/kevinKuwata1/Documents/xcode/ECEN1310Final/Mifare_SERVO/Mifare_SERVO/main.c ****         close();
 685               	.LM57:
 686 01ec 0E94 0000 		call close
 687               	.LBB129:
 688               	.LBB130:
 690               	.Ltext27:
 187:/usr/local/Cellar/avr-gcc/6.2.0/avr/include/util/delay.h **** 
 692               	.LM58:
 693 01f0 2FEF      		ldi r18,lo8(1599999)
 694 01f2 89E6      		ldi r24,hi8(1599999)
 695 01f4 98E1      		ldi r25,hlo8(1599999)
 696 01f6 2150      	1:	subi r18,1
 697 01f8 8040      		sbci r24,0
 698 01fa 9040      		sbci r25,0
 699 01fc 01F4      		brne 1b
 700 01fe 00C0      		rjmp .
 701 0200 0000      		nop
 702               	.LBE130:
 703               	.LBE129:
 705               	.Ltext28:
 224:/Users/kevinKuwata1/Documents/xcode/ECEN1310Final/Mifare_SERVO/Mifare_SERVO/main.c ****         _delay_ms(1000);
 225:/Users/kevinKuwata1/Documents/xcode/ECEN1310Final/Mifare_SERVO/Mifare_SERVO/main.c ****         LCDClear();
 707               	.LM59:
 708 0202 60E0      		ldi r22,0
 709 0204 81E0      		ldi r24,lo8(1)
 710 0206 0E94 0000 		call LCDByte
 711 020a 81E0      		ldi r24,lo8(1)
 712 020c 90E0      		ldi r25,0
 713 020e 0895      		ret
 714               	.L20:
 715               	.LBE124:
 716               	.LBE123:
 226:/Users/kevinKuwata1/Documents/xcode/ECEN1310Final/Mifare_SERVO/Mifare_SERVO/main.c ****         return 1;
 227:/Users/kevinKuwata1/Documents/xcode/ECEN1310Final/Mifare_SERVO/Mifare_SERVO/main.c ****     }
 228:/Users/kevinKuwata1/Documents/xcode/ECEN1310Final/Mifare_SERVO/Mifare_SERVO/main.c ****     return 0;
 718               	.LM60:
 719 0210 80E0      		ldi r24,0
 720 0212 90E0      		ldi r25,0
 229:/Users/kevinKuwata1/Documents/xcode/ECEN1310Final/Mifare_SERVO/Mifare_SERVO/main.c **** }
 722               	.LM61:
 723 0214 0895      		ret
 725               	.Lscope8:
 727               	.global	loadTags
 729               	loadTags:
 230:/Users/kevinKuwata1/Documents/xcode/ECEN1310Final/Mifare_SERVO/Mifare_SERVO/main.c **** 
 231:/Users/kevinKuwata1/Documents/xcode/ECEN1310Final/Mifare_SERVO/Mifare_SERVO/main.c **** void loadTags(void){
 731               	.LM62:
 732               	.LFBB9:
 733 0216 CF92      		push r12
 734 0218 DF92      		push r13
 735 021a EF92      		push r14
 736 021c FF92      		push r15
 737 021e 0F93      		push r16
 738 0220 1F93      		push r17
 739 0222 CF93      		push r28
 740 0224 DF93      		push r29
 741               	/* prologue: function */
 742               	/* frame size = 0 */
 743               	/* stack size = 8 */
 744               	.L__stack_usage = 8
 745 0226 C0E0      		ldi r28,lo8(tag1)
 746 0228 D0E0      		ldi r29,hi8(tag1)
 747 022a 80E0      		ldi r24,lo8(ram_tag1)
 748 022c C82E      		mov r12,r24
 749 022e 80E0      		ldi r24,hi8(ram_tag1)
 750 0230 D82E      		mov r13,r24
 751 0232 90E0      		ldi r25,lo8(tag2)
 752 0234 E92E      		mov r14,r25
 753 0236 90E0      		ldi r25,hi8(tag2)
 754 0238 F92E      		mov r15,r25
 755 023a 00E0      		ldi r16,lo8(ram_tag2)
 756 023c 10E0      		ldi r17,hi8(ram_tag2)
 757               	.L22:
 758               	.LBB131:
 232:/Users/kevinKuwata1/Documents/xcode/ECEN1310Final/Mifare_SERVO/Mifare_SERVO/main.c ****     for(int i=0; i<5; i++){
 233:/Users/kevinKuwata1/Documents/xcode/ECEN1310Final/Mifare_SERVO/Mifare_SERVO/main.c ****         ram_tag1[i] = read_eeprom_word(tag1[i]);
 760               	.LM63:
 761 023e 8991      		ld r24,Y+
 762 0240 90E0      		ldi r25,0
 763 0242 0E94 0000 		call eeprom_read_word
 764 0246 F601      		movw r30,r12
 765 0248 8193      		st Z+,r24
 766 024a 6F01      		movw r12,r30
 234:/Users/kevinKuwata1/Documents/xcode/ECEN1310Final/Mifare_SERVO/Mifare_SERVO/main.c ****         ram_tag2[i] = read_eeprom_word(tag2[i]);
 768               	.LM64:
 769 024c F701      		movw r30,r14
 770 024e 8191      		ld r24,Z+
 771 0250 7F01      		movw r14,r30
 772 0252 90E0      		ldi r25,0
 773 0254 0E94 0000 		call eeprom_read_word
 774 0258 F801      		movw r30,r16
 775 025a 8193      		st Z+,r24
 776 025c 8F01      		movw r16,r30
 232:/Users/kevinKuwata1/Documents/xcode/ECEN1310Final/Mifare_SERVO/Mifare_SERVO/main.c ****     for(int i=0; i<5; i++){
 778               	.LM65:
 779 025e F0E0      		ldi r31,hi8(tag1+5)
 780 0260 C030      		cpi r28,lo8(tag1+5)
 781 0262 DF07      		cpc r29,r31
 782 0264 01F4      		brne .L22
 783               	/* epilogue start */
 784               	.LBE131:
 235:/Users/kevinKuwata1/Documents/xcode/ECEN1310Final/Mifare_SERVO/Mifare_SERVO/main.c ****     }
 236:/Users/kevinKuwata1/Documents/xcode/ECEN1310Final/Mifare_SERVO/Mifare_SERVO/main.c **** }
 786               	.LM66:
 787 0266 DF91      		pop r29
 788 0268 CF91      		pop r28
 789 026a 1F91      		pop r17
 790 026c 0F91      		pop r16
 791 026e FF90      		pop r15
 792 0270 EF90      		pop r14
 793 0272 DF90      		pop r13
 794 0274 CF90      		pop r12
 795 0276 0895      		ret
 797               	.Lscope9:
 799               	.global	validTag
 801               	validTag:
 237:/Users/kevinKuwata1/Documents/xcode/ECEN1310Final/Mifare_SERVO/Mifare_SERVO/main.c **** 
 238:/Users/kevinKuwata1/Documents/xcode/ECEN1310Final/Mifare_SERVO/Mifare_SERVO/main.c **** void validTag(){
 803               	.LM67:
 804               	.LFBB10:
 805               	/* prologue: function */
 806               	/* frame size = 0 */
 807               	/* stack size = 0 */
 808               	.L__stack_usage = 0
 239:/Users/kevinKuwata1/Documents/xcode/ECEN1310Final/Mifare_SERVO/Mifare_SERVO/main.c ****     //flash green led if valid
 240:/Users/kevinKuwata1/Documents/xcode/ECEN1310Final/Mifare_SERVO/Mifare_SERVO/main.c ****     PORTC |= BV(ledG);
 810               	.LM68:
 811 0278 429A      		sbi 0x8,2
 812               	.LBB132:
 813               	.LBB133:
 815               	.Ltext29:
 187:/usr/local/Cellar/avr-gcc/6.2.0/avr/include/util/delay.h **** 
 817               	.LM69:
 818 027a 2FEF      		ldi r18,lo8(639999)
 819 027c 83EC      		ldi r24,hi8(639999)
 820 027e 99E0      		ldi r25,hlo8(639999)
 821 0280 2150      	1:	subi r18,1
 822 0282 8040      		sbci r24,0
 823 0284 9040      		sbci r25,0
 824 0286 01F4      		brne 1b
 825 0288 00C0      		rjmp .
 826 028a 0000      		nop
 827               	.LBE133:
 828               	.LBE132:
 830               	.Ltext30:
 241:/Users/kevinKuwata1/Documents/xcode/ECEN1310Final/Mifare_SERVO/Mifare_SERVO/main.c ****     _delay_ms(400);
 242:/Users/kevinKuwata1/Documents/xcode/ECEN1310Final/Mifare_SERVO/Mifare_SERVO/main.c ****     PORTC ^= BV(ledG);
 832               	.LM70:
 833 028c 88B1      		in r24,0x8
 834 028e 94E0      		ldi r25,lo8(4)
 835 0290 8927      		eor r24,r25
 836 0292 88B9      		out 0x8,r24
 837               	.LBB134:
 838               	.LBB135:
 840               	.Ltext31:
 187:/usr/local/Cellar/avr-gcc/6.2.0/avr/include/util/delay.h **** 
 842               	.LM71:
 843 0294 2FEF      		ldi r18,lo8(639999)
 844 0296 83EC      		ldi r24,hi8(639999)
 845 0298 99E0      		ldi r25,hlo8(639999)
 846 029a 2150      	1:	subi r18,1
 847 029c 8040      		sbci r24,0
 848 029e 9040      		sbci r25,0
 849 02a0 01F4      		brne 1b
 850 02a2 00C0      		rjmp .
 851 02a4 0000      		nop
 852 02a6 0895      		ret
 853               	.LBE135:
 854               	.LBE134:
 856               	.Lscope10:
 857               		.section	.rodata.str1.1
 858               	.LC1:
 859 000d 4543 454E 		.string	"ECEN1310 RFID Tag Reader"
 859      3133 3130 
 859      2052 4649 
 859      4420 5461 
 859      6720 5265 
 860               	.LC2:
 861 0026 6465 6C65 		.string	"delete tag acivated"
 861      7465 2074 
 861      6167 2061 
 861      6369 7661 
 861      7465 6400 
 862               	.LC3:
 863 003a 5363 616E 		.string	"Scan again to "
 863      2061 6761 
 863      696E 2074 
 863      6F20 00
 864               	.LC4:
 865 0049 6465 6C65 		.string	"delete all tags."
 865      7465 2061 
 865      6C6C 2074 
 865      6167 732E 
 865      00
 866               	.LC5:
 867 005a 5265 6D6F 		.string	"Removing Tags"
 867      7669 6E67 
 867      2054 6167 
 867      7300 
 868               	.LC6:
 869 0068 5461 6773 		.string	"Tags Erased"
 869      2045 7261 
 869      7365 6400 
 870               	.LC7:
 871 0074 5363 616E 		.string	"Scan tag to "
 871      2074 6167 
 871      2074 6F20 
 871      00
 872               	.LC8:
 873 0081 6265 2061 		.string	"be added."
 873      6464 6564 
 873      2E00 
 874               	.LC9:
 875 008b 4675 6C6C 		.string	"Full"
 875      00
 876               	.LC10:
 877 0090 4144 4449 		.string	"ADDING CARD 1"
 877      4E47 2043 
 877      4152 4420 
 877      3100 
 878               	.LC11:
 879 009e 4144 4449 		.string	"ADDING CARD 2"
 879      4E47 2043 
 879      4152 4420 
 879      3200 
 880               	.LC12:
 881 00ac 4572 726F 		.string	"Error"
 881      7200 
 882               	.LC13:
 883 00b2 4D41 5443 		.string	"MATCH"
 883      4800 
 884               	.LC14:
 885 00b8 5355 4343 		.string	"SUCCESS"
 885      4553 5300 
 886               	.LC15:
 887 00c0 6E6F 7420 		.string	"not valid"
 887      7661 6C69 
 887      6400 
 888               	.LC16:
 889 00ca 5072 6573 		.string	"Present Tag"
 889      656E 7420 
 889      5461 6700 
 890               		.section	.text.startup,"ax",@progbits
 892               	.global	main
 894               	main:
 896               	.Ltext32:
 243:/Users/kevinKuwata1/Documents/xcode/ECEN1310Final/Mifare_SERVO/Mifare_SERVO/main.c ****     _delay_ms(400);
 244:/Users/kevinKuwata1/Documents/xcode/ECEN1310Final/Mifare_SERVO/Mifare_SERVO/main.c ****     
 245:/Users/kevinKuwata1/Documents/xcode/ECEN1310Final/Mifare_SERVO/Mifare_SERVO/main.c **** }
 246:/Users/kevinKuwata1/Documents/xcode/ECEN1310Final/Mifare_SERVO/Mifare_SERVO/main.c **** 
 247:/Users/kevinKuwata1/Documents/xcode/ECEN1310Final/Mifare_SERVO/Mifare_SERVO/main.c **** 
 248:/Users/kevinKuwata1/Documents/xcode/ECEN1310Final/Mifare_SERVO/Mifare_SERVO/main.c **** 
 249:/Users/kevinKuwata1/Documents/xcode/ECEN1310Final/Mifare_SERVO/Mifare_SERVO/main.c **** int main(void)
 250:/Users/kevinKuwata1/Documents/xcode/ECEN1310Final/Mifare_SERVO/Mifare_SERVO/main.c **** {
 898               	.LM72:
 899               	.LFBB11:
 900 0000 CF93      		push r28
 901 0002 DF93      		push r29
 902 0004 CDB7      		in r28,__SP_L__
 903 0006 DEB7      		in r29,__SP_H__
 904 0008 6897      		sbiw r28,24
 905 000a 0FB6      		in __tmp_reg__,__SREG__
 906 000c F894      		cli
 907 000e DEBF      		out __SP_H__,r29
 908 0010 0FBE      		out __SREG__,__tmp_reg__
 909 0012 CDBF      		out __SP_L__,r28
 910               	/* prologue: function */
 911               	/* frame size = 24 */
 912               	/* stack size = 26 */
 913               	.L__stack_usage = 26
 251:/Users/kevinKuwata1/Documents/xcode/ECEN1310Final/Mifare_SERVO/Mifare_SERVO/main.c **** 
 252:/Users/kevinKuwata1/Documents/xcode/ECEN1310Final/Mifare_SERVO/Mifare_SERVO/main.c ****     
 253:/Users/kevinKuwata1/Documents/xcode/ECEN1310Final/Mifare_SERVO/Mifare_SERVO/main.c **** 
 254:/Users/kevinKuwata1/Documents/xcode/ECEN1310Final/Mifare_SERVO/Mifare_SERVO/main.c ****     initLED();
 915               	.LM73:
 916 0014 0E94 0000 		call initLED
 255:/Users/kevinKuwata1/Documents/xcode/ECEN1310Final/Mifare_SERVO/Mifare_SERVO/main.c ****     
 256:/Users/kevinKuwata1/Documents/xcode/ECEN1310Final/Mifare_SERVO/Mifare_SERVO/main.c ****     loadTags(); //load any tags stored in eeprom.
 918               	.LM74:
 919 0018 0E94 0000 		call loadTags
 257:/Users/kevinKuwata1/Documents/xcode/ECEN1310Final/Mifare_SERVO/Mifare_SERVO/main.c ****     initServo(); //make servo an output at pin 5
 921               	.LM75:
 922 001c 0E94 0000 		call initServo
 923               	.LBB136:
 924               	.LBB137:
 926               	.Ltext33:
 187:/usr/local/Cellar/avr-gcc/6.2.0/avr/include/util/delay.h **** 
 928               	.LM76:
 929 0020 2FE7      		ldi r18,lo8(79999)
 930 0022 88E3      		ldi r24,hi8(79999)
 931 0024 91E0      		ldi r25,hlo8(79999)
 932 0026 2150      	1:	subi r18,1
 933 0028 8040      		sbci r24,0
 934 002a 9040      		sbci r25,0
 935 002c 01F4      		brne 1b
 936 002e 00C0      		rjmp .
 937 0030 0000      		nop
 938               	.LBE137:
 939               	.LBE136:
 941               	.Ltext34:
 258:/Users/kevinKuwata1/Documents/xcode/ECEN1310Final/Mifare_SERVO/Mifare_SERVO/main.c ****     
 259:/Users/kevinKuwata1/Documents/xcode/ECEN1310Final/Mifare_SERVO/Mifare_SERVO/main.c ****     uint8_t byte;
 260:/Users/kevinKuwata1/Documents/xcode/ECEN1310Final/Mifare_SERVO/Mifare_SERVO/main.c ****     uint8_t str[MAX_LEN];
 261:/Users/kevinKuwata1/Documents/xcode/ECEN1310Final/Mifare_SERVO/Mifare_SERVO/main.c ****     _delay_ms(50);
 262:/Users/kevinKuwata1/Documents/xcode/ECEN1310Final/Mifare_SERVO/Mifare_SERVO/main.c ****     LCDInit(LS_BLINK);
 943               	.LM77:
 944 0032 81E0      		ldi r24,lo8(1)
 945 0034 0E94 0000 		call LCDInit
 263:/Users/kevinKuwata1/Documents/xcode/ECEN1310Final/Mifare_SERVO/Mifare_SERVO/main.c ****     LCDWriteStringXY(2,0,"ECEN1310 RFID Tag Reader");
 947               	.LM78:
 948 0038 60E0      		ldi r22,0
 949 003a 82E0      		ldi r24,lo8(2)
 950 003c 0E94 0000 		call LCDGotoXY
 951 0040 80E0      		ldi r24,lo8(.LC1)
 952 0042 90E0      		ldi r25,hi8(.LC1)
 953 0044 0E94 0000 		call LCDWriteString
 264:/Users/kevinKuwata1/Documents/xcode/ECEN1310Final/Mifare_SERVO/Mifare_SERVO/main.c ****     
 265:/Users/kevinKuwata1/Documents/xcode/ECEN1310Final/Mifare_SERVO/Mifare_SERVO/main.c ****     spi_init(); //start communication for rfid
 955               	.LM79:
 956 0048 0E94 0000 		call spi_init
 957               	.LBB138:
 958               	.LBB139:
 960               	.Ltext35:
 187:/usr/local/Cellar/avr-gcc/6.2.0/avr/include/util/delay.h **** 
 962               	.LM80:
 963 004c AFEF      		ldi r26,lo8(1599999)
 964 004e B9E6      		ldi r27,hi8(1599999)
 965 0050 E8E1      		ldi r30,hlo8(1599999)
 966 0052 A150      	1:	subi r26,1
 967 0054 B040      		sbci r27,0
 968 0056 E040      		sbci r30,0
 969 0058 01F4      		brne 1b
 970 005a 00C0      		rjmp .
 971 005c 0000      		nop
 972               	.LBE139:
 973               	.LBE138:
 975               	.Ltext36:
 266:/Users/kevinKuwata1/Documents/xcode/ECEN1310Final/Mifare_SERVO/Mifare_SERVO/main.c ****     _delay_ms(1000);
 267:/Users/kevinKuwata1/Documents/xcode/ECEN1310Final/Mifare_SERVO/Mifare_SERVO/main.c ****     LCDClear();
 977               	.LM81:
 978 005e 60E0      		ldi r22,0
 979 0060 81E0      		ldi r24,lo8(1)
 980 0062 0E94 0000 		call LCDByte
 268:/Users/kevinKuwata1/Documents/xcode/ECEN1310Final/Mifare_SERVO/Mifare_SERVO/main.c ****     
 269:/Users/kevinKuwata1/Documents/xcode/ECEN1310Final/Mifare_SERVO/Mifare_SERVO/main.c ****     open();  //for testing
 982               	.LM82:
 983 0066 0E94 0000 		call open
 270:/Users/kevinKuwata1/Documents/xcode/ECEN1310Final/Mifare_SERVO/Mifare_SERVO/main.c ****     close(); //was for testing
 985               	.LM83:
 986 006a 0E94 0000 		call close
 271:/Users/kevinKuwata1/Documents/xcode/ECEN1310Final/Mifare_SERVO/Mifare_SERVO/main.c ****     
 272:/Users/kevinKuwata1/Documents/xcode/ECEN1310Final/Mifare_SERVO/Mifare_SERVO/main.c ****     //init reader
 273:/Users/kevinKuwata1/Documents/xcode/ECEN1310Final/Mifare_SERVO/Mifare_SERVO/main.c ****     mfrc522_init();
 988               	.LM84:
 989 006e 0E94 0000 		call mfrc522_init
 990               	.LBB140:
 991               	.LBB141:
 993               	.Ltext37:
 187:/usr/local/Cellar/avr-gcc/6.2.0/avr/include/util/delay.h **** 
 995               	.LM85:
 996 0072 FFEF      		ldi r31,lo8(2399999)
 997 0074 2EE9      		ldi r18,hi8(2399999)
 998 0076 84E2      		ldi r24,hlo8(2399999)
 999 0078 F150      	1:	subi r31,1
 1000 007a 2040      		sbci r18,0
 1001 007c 8040      		sbci r24,0
 1002 007e 01F4      		brne 1b
 1003 0080 00C0      		rjmp .
 1004 0082 0000      		nop
 1005               	.LBE141:
 1006               	.LBE140:
 1008               	.Ltext38:
 274:/Users/kevinKuwata1/Documents/xcode/ECEN1310Final/Mifare_SERVO/Mifare_SERVO/main.c ****     
 275:/Users/kevinKuwata1/Documents/xcode/ECEN1310Final/Mifare_SERVO/Mifare_SERVO/main.c ****     _delay_ms(1500);
 276:/Users/kevinKuwata1/Documents/xcode/ECEN1310Final/Mifare_SERVO/Mifare_SERVO/main.c ****     LCDClear();
 1010               	.LM86:
 1011 0084 60E0      		ldi r22,0
 1012 0086 81E0      		ldi r24,lo8(1)
 1013 0088 0E94 0000 		call LCDByte
 277:/Users/kevinKuwata1/Documents/xcode/ECEN1310Final/Mifare_SERVO/Mifare_SERVO/main.c ****     
 278:/Users/kevinKuwata1/Documents/xcode/ECEN1310Final/Mifare_SERVO/Mifare_SERVO/main.c ****     int addNext = 0;
 279:/Users/kevinKuwata1/Documents/xcode/ECEN1310Final/Mifare_SERVO/Mifare_SERVO/main.c ****     int deleteNext =0;
 280:/Users/kevinKuwata1/Documents/xcode/ECEN1310Final/Mifare_SERVO/Mifare_SERVO/main.c ****     
 281:/Users/kevinKuwata1/Documents/xcode/ECEN1310Final/Mifare_SERVO/Mifare_SERVO/main.c ****     
 282:/Users/kevinKuwata1/Documents/xcode/ECEN1310Final/Mifare_SERVO/Mifare_SERVO/main.c ****     PORTC |=BV(ledG);
 1015               	.LM87:
 1016 008c 429A      		sbi 0x8,2
 1017               	.LBB142:
 1018               	.LBB143:
 1020               	.Ltext39:
 187:/usr/local/Cellar/avr-gcc/6.2.0/avr/include/util/delay.h **** 
 1022               	.LM88:
 1023 008e 9FE7      		ldi r25,lo8(143999)
 1024 0090 A2E3      		ldi r26,hi8(143999)
 1025 0092 B2E0      		ldi r27,hlo8(143999)
 1026 0094 9150      	1:	subi r25,1
 1027 0096 A040      		sbci r26,0
 1028 0098 B040      		sbci r27,0
 1029 009a 01F4      		brne 1b
 1030 009c 00C0      		rjmp .
 1031 009e 0000      		nop
 1032               	.LBE143:
 1033               	.LBE142:
 1035               	.Ltext40:
 283:/Users/kevinKuwata1/Documents/xcode/ECEN1310Final/Mifare_SERVO/Mifare_SERVO/main.c ****     _delay_ms(90);
 284:/Users/kevinKuwata1/Documents/xcode/ECEN1310Final/Mifare_SERVO/Mifare_SERVO/main.c ****     PORTC ^= BV(ledG);
 1037               	.LM89:
 1038 00a0 88B1      		in r24,0x8
 1039 00a2 94E0      		ldi r25,lo8(4)
 1040 00a4 8927      		eor r24,r25
 1041 00a6 88B9      		out 0x8,r24
 1042               	.LBB144:
 1043               	.LBB145:
 1045               	.Ltext41:
 187:/usr/local/Cellar/avr-gcc/6.2.0/avr/include/util/delay.h **** 
 1047               	.LM90:
 1048 00a8 EFE5      		ldi r30,lo8(-5537)
 1049 00aa FAEE      		ldi r31,hi8(-5537)
 1050 00ac 3197      	1:	sbiw r30,1
 1051 00ae 01F4      		brne 1b
 1052 00b0 00C0      		rjmp .
 1053 00b2 0000      		nop
 1054               	.LBE145:
 1055               	.LBE144:
 1057               	.Ltext42:
 279:/Users/kevinKuwata1/Documents/xcode/ECEN1310Final/Mifare_SERVO/Mifare_SERVO/main.c ****     
 1059               	.LM91:
 1060 00b4 E12C      		mov r14,__zero_reg__
 1061 00b6 F12C      		mov r15,__zero_reg__
 278:/Users/kevinKuwata1/Documents/xcode/ECEN1310Final/Mifare_SERVO/Mifare_SERVO/main.c ****     int deleteNext =0;
 1063               	.LM92:
 1064 00b8 00E0      		ldi r16,0
 1065 00ba 10E0      		ldi r17,0
 1066 00bc 4E01      		movw r8,r28
 1067 00be F6E0      		ldi r31,6
 1068 00c0 8F0E      		add r8,r31
 1069 00c2 911C      		adc r9,__zero_reg__
 1070               	.L52:
 285:/Users/kevinKuwata1/Documents/xcode/ECEN1310Final/Mifare_SERVO/Mifare_SERVO/main.c ****     _delay_ms(30);
 286:/Users/kevinKuwata1/Documents/xcode/ECEN1310Final/Mifare_SERVO/Mifare_SERVO/main.c ****     
 287:/Users/kevinKuwata1/Documents/xcode/ECEN1310Final/Mifare_SERVO/Mifare_SERVO/main.c ****     while(1){
 288:/Users/kevinKuwata1/Documents/xcode/ECEN1310Final/Mifare_SERVO/Mifare_SERVO/main.c ****         
 289:/Users/kevinKuwata1/Documents/xcode/ECEN1310Final/Mifare_SERVO/Mifare_SERVO/main.c ****        // initLED();
 290:/Users/kevinKuwata1/Documents/xcode/ECEN1310Final/Mifare_SERVO/Mifare_SERVO/main.c ****         
 291:/Users/kevinKuwata1/Documents/xcode/ECEN1310Final/Mifare_SERVO/Mifare_SERVO/main.c ****         loadTags();
 1072               	.LM93:
 1073 00c4 0E94 0000 		call loadTags
 292:/Users/kevinKuwata1/Documents/xcode/ECEN1310Final/Mifare_SERVO/Mifare_SERVO/main.c ****         byte = mfrc522_request(PICC_REQALL,str);
 1075               	.LM94:
 1076 00c8 BE01      		movw r22,r28
 1077 00ca 6F5F      		subi r22,-1
 1078 00cc 7F4F      		sbci r23,-1
 1079 00ce 82E5      		ldi r24,lo8(82)
 1080 00d0 0E94 0000 		call mfrc522_request
 1081 00d4 D82E      		mov r13,r24
 293:/Users/kevinKuwata1/Documents/xcode/ECEN1310Final/Mifare_SERVO/Mifare_SERVO/main.c ****         
 294:/Users/kevinKuwata1/Documents/xcode/ECEN1310Final/Mifare_SERVO/Mifare_SERVO/main.c ****         LCDHexDumpXY(0,0,byte);
 1083               	.LM95:
 1084 00d6 482F      		mov r20,r24
 1085 00d8 60E0      		ldi r22,0
 1086 00da 80E0      		ldi r24,0
 1087 00dc 0E94 0000 		call LCDHexDumpXY
 295:/Users/kevinKuwata1/Documents/xcode/ECEN1310Final/Mifare_SERVO/Mifare_SERVO/main.c ****         buttonRead();
 1089               	.LM96:
 1090 00e0 0E94 0000 		call buttonRead
 296:/Users/kevinKuwata1/Documents/xcode/ECEN1310Final/Mifare_SERVO/Mifare_SERVO/main.c ****         LCDClear();
 1092               	.LM97:
 1093 00e4 60E0      		ldi r22,0
 1094 00e6 81E0      		ldi r24,lo8(1)
 1095 00e8 0E94 0000 		call LCDByte
 1096               	.L26:
 297:/Users/kevinKuwata1/Documents/xcode/ECEN1310Final/Mifare_SERVO/Mifare_SERVO/main.c ****         
 298:/Users/kevinKuwata1/Documents/xcode/ECEN1310Final/Mifare_SERVO/Mifare_SERVO/main.c ****         while(deleteNext == 1){
 1098               	.LM98:
 1099 00ec E1E0      		ldi r30,1
 1100 00ee EE16      		cp r14,r30
 1101 00f0 F104      		cpc r15,__zero_reg__
 1102 00f2 01F4      		brne .+2
 1103 00f4 00C0      		rjmp .L32
 1104               	.L33:
 299:/Users/kevinKuwata1/Documents/xcode/ECEN1310Final/Mifare_SERVO/Mifare_SERVO/main.c ****             LCDClear();
 300:/Users/kevinKuwata1/Documents/xcode/ECEN1310Final/Mifare_SERVO/Mifare_SERVO/main.c ****             LCDWriteString("delete tag acivated");
 301:/Users/kevinKuwata1/Documents/xcode/ECEN1310Final/Mifare_SERVO/Mifare_SERVO/main.c ****             _delay_ms(800);
 302:/Users/kevinKuwata1/Documents/xcode/ECEN1310Final/Mifare_SERVO/Mifare_SERVO/main.c ****             byte = mfrc522_request(PICC_REQALL,str);
 303:/Users/kevinKuwata1/Documents/xcode/ECEN1310Final/Mifare_SERVO/Mifare_SERVO/main.c ****             LCDClear();
 304:/Users/kevinKuwata1/Documents/xcode/ECEN1310Final/Mifare_SERVO/Mifare_SERVO/main.c ****             LCDWriteString("Scan again to ");
 305:/Users/kevinKuwata1/Documents/xcode/ECEN1310Final/Mifare_SERVO/Mifare_SERVO/main.c ****             LCDWriteStringXY(0, 1, "delete all tags.");
 306:/Users/kevinKuwata1/Documents/xcode/ECEN1310Final/Mifare_SERVO/Mifare_SERVO/main.c ****             byte = mfrc522_request(PICC_REQALL,str);
 307:/Users/kevinKuwata1/Documents/xcode/ECEN1310Final/Mifare_SERVO/Mifare_SERVO/main.c ****             if(byte == CARD_FOUND)
 308:/Users/kevinKuwata1/Documents/xcode/ECEN1310Final/Mifare_SERVO/Mifare_SERVO/main.c ****             {
 309:/Users/kevinKuwata1/Documents/xcode/ECEN1310Final/Mifare_SERVO/Mifare_SERVO/main.c ****                 byte = mfrc522_get_card_serial(str);
 310:/Users/kevinKuwata1/Documents/xcode/ECEN1310Final/Mifare_SERVO/Mifare_SERVO/main.c ****                 if(byte == CARD_FOUND)
 311:/Users/kevinKuwata1/Documents/xcode/ECEN1310Final/Mifare_SERVO/Mifare_SERVO/main.c ****                 {
 312:/Users/kevinKuwata1/Documents/xcode/ECEN1310Final/Mifare_SERVO/Mifare_SERVO/main.c ****                     for(int j=0; j<=4; j++){
 313:/Users/kevinKuwata1/Documents/xcode/ECEN1310Final/Mifare_SERVO/Mifare_SERVO/main.c ****                         if (tagNumber == 0 || str[j] != tag1[j] || str[j] != tag2[j]) {
 314:/Users/kevinKuwata1/Documents/xcode/ECEN1310Final/Mifare_SERVO/Mifare_SERVO/main.c ****                             deleteNext = 0;
 315:/Users/kevinKuwata1/Documents/xcode/ECEN1310Final/Mifare_SERVO/Mifare_SERVO/main.c ****                         }
 316:/Users/kevinKuwata1/Documents/xcode/ECEN1310Final/Mifare_SERVO/Mifare_SERVO/main.c ****                     }
 317:/Users/kevinKuwata1/Documents/xcode/ECEN1310Final/Mifare_SERVO/Mifare_SERVO/main.c ****                         for(int i=0; i<=4; i++){
 318:/Users/kevinKuwata1/Documents/xcode/ECEN1310Final/Mifare_SERVO/Mifare_SERVO/main.c ****                             if(str[i] == DELETE[i]){
 319:/Users/kevinKuwata1/Documents/xcode/ECEN1310Final/Mifare_SERVO/Mifare_SERVO/main.c ****                                 deleteNext =1;//duplicate
 320:/Users/kevinKuwata1/Documents/xcode/ECEN1310Final/Mifare_SERVO/Mifare_SERVO/main.c ****                             }
 321:/Users/kevinKuwata1/Documents/xcode/ECEN1310Final/Mifare_SERVO/Mifare_SERVO/main.c ****                             else
 322:/Users/kevinKuwata1/Documents/xcode/ECEN1310Final/Mifare_SERVO/Mifare_SERVO/main.c ****                                 deleteNext =0;
 323:/Users/kevinKuwata1/Documents/xcode/ECEN1310Final/Mifare_SERVO/Mifare_SERVO/main.c ****                         }//end of check if duplicate
 324:/Users/kevinKuwata1/Documents/xcode/ECEN1310Final/Mifare_SERVO/Mifare_SERVO/main.c ****                     
 325:/Users/kevinKuwata1/Documents/xcode/ECEN1310Final/Mifare_SERVO/Mifare_SERVO/main.c ****                     if(deleteNext ==1){
 326:/Users/kevinKuwata1/Documents/xcode/ECEN1310Final/Mifare_SERVO/Mifare_SERVO/main.c ****                         LCDClear();
 327:/Users/kevinKuwata1/Documents/xcode/ECEN1310Final/Mifare_SERVO/Mifare_SERVO/main.c ****                         LCDWriteString("Removing Tags");
 328:/Users/kevinKuwata1/Documents/xcode/ECEN1310Final/Mifare_SERVO/Mifare_SERVO/main.c ****                         _delay_ms(1000);
 329:/Users/kevinKuwata1/Documents/xcode/ECEN1310Final/Mifare_SERVO/Mifare_SERVO/main.c ****                         for(int i=0; i<5; i++){
 330:/Users/kevinKuwata1/Documents/xcode/ECEN1310Final/Mifare_SERVO/Mifare_SERVO/main.c ****                             write_eeprom_word(tag1[i], 0);
 331:/Users/kevinKuwata1/Documents/xcode/ECEN1310Final/Mifare_SERVO/Mifare_SERVO/main.c ****                             write_eeprom_word(tag2[i], 0);
 332:/Users/kevinKuwata1/Documents/xcode/ECEN1310Final/Mifare_SERVO/Mifare_SERVO/main.c ****                         }
 333:/Users/kevinKuwata1/Documents/xcode/ECEN1310Final/Mifare_SERVO/Mifare_SERVO/main.c ****                         tagNumber =1;
 334:/Users/kevinKuwata1/Documents/xcode/ECEN1310Final/Mifare_SERVO/Mifare_SERVO/main.c ****                         deleteNext =0;
 335:/Users/kevinKuwata1/Documents/xcode/ECEN1310Final/Mifare_SERVO/Mifare_SERVO/main.c ****                         LCDClear();
 336:/Users/kevinKuwata1/Documents/xcode/ECEN1310Final/Mifare_SERVO/Mifare_SERVO/main.c ****                         LCDWriteString("Tags Erased");
 337:/Users/kevinKuwata1/Documents/xcode/ECEN1310Final/Mifare_SERVO/Mifare_SERVO/main.c ****                         _delay_ms(300);
 338:/Users/kevinKuwata1/Documents/xcode/ECEN1310Final/Mifare_SERVO/Mifare_SERVO/main.c ****                         tagNumber =0;
 339:/Users/kevinKuwata1/Documents/xcode/ECEN1310Final/Mifare_SERVO/Mifare_SERVO/main.c **** 
 340:/Users/kevinKuwata1/Documents/xcode/ECEN1310Final/Mifare_SERVO/Mifare_SERVO/main.c ****                     }
 341:/Users/kevinKuwata1/Documents/xcode/ECEN1310Final/Mifare_SERVO/Mifare_SERVO/main.c ****                     deleteNext =0;
 342:/Users/kevinKuwata1/Documents/xcode/ECEN1310Final/Mifare_SERVO/Mifare_SERVO/main.c ****                    // addNext =0;
 343:/Users/kevinKuwata1/Documents/xcode/ECEN1310Final/Mifare_SERVO/Mifare_SERVO/main.c ****                 }//end of if card found
 344:/Users/kevinKuwata1/Documents/xcode/ECEN1310Final/Mifare_SERVO/Mifare_SERVO/main.c ****             }
 345:/Users/kevinKuwata1/Documents/xcode/ECEN1310Final/Mifare_SERVO/Mifare_SERVO/main.c ****             loadTags();
 346:/Users/kevinKuwata1/Documents/xcode/ECEN1310Final/Mifare_SERVO/Mifare_SERVO/main.c ****             byte = mfrc522_request(PICC_REQALL,str);
 347:/Users/kevinKuwata1/Documents/xcode/ECEN1310Final/Mifare_SERVO/Mifare_SERVO/main.c ****         }//end of delete next
 348:/Users/kevinKuwata1/Documents/xcode/ECEN1310Final/Mifare_SERVO/Mifare_SERVO/main.c ****         
 349:/Users/kevinKuwata1/Documents/xcode/ECEN1310Final/Mifare_SERVO/Mifare_SERVO/main.c ****         while(addNext == 1){
 1106               	.LM99:
 1107 00f6 0130      		cpi r16,1
 1108 00f8 1105      		cpc r17,__zero_reg__
 1109 00fa 01F4      		brne .+2
 1110 00fc 00C0      		rjmp .L41
 350:/Users/kevinKuwata1/Documents/xcode/ECEN1310Final/Mifare_SERVO/Mifare_SERVO/main.c ****             byte = mfrc522_request(PICC_REQALL,str);
 351:/Users/kevinKuwata1/Documents/xcode/ECEN1310Final/Mifare_SERVO/Mifare_SERVO/main.c ****             LCDClear();
 352:/Users/kevinKuwata1/Documents/xcode/ECEN1310Final/Mifare_SERVO/Mifare_SERVO/main.c ****             LCDWriteString("Scan tag to ");
 353:/Users/kevinKuwata1/Documents/xcode/ECEN1310Final/Mifare_SERVO/Mifare_SERVO/main.c ****             LCDWriteStringXY(0, 1, "be added.");
 354:/Users/kevinKuwata1/Documents/xcode/ECEN1310Final/Mifare_SERVO/Mifare_SERVO/main.c ****             byte = mfrc522_request(PICC_REQALL,str);
 355:/Users/kevinKuwata1/Documents/xcode/ECEN1310Final/Mifare_SERVO/Mifare_SERVO/main.c ****             
 356:/Users/kevinKuwata1/Documents/xcode/ECEN1310Final/Mifare_SERVO/Mifare_SERVO/main.c ****             if(addNext ==1 && tagNumber >2)
 357:/Users/kevinKuwata1/Documents/xcode/ECEN1310Final/Mifare_SERVO/Mifare_SERVO/main.c ****             {
 358:/Users/kevinKuwata1/Documents/xcode/ECEN1310Final/Mifare_SERVO/Mifare_SERVO/main.c ****                 addNext =0;
 359:/Users/kevinKuwata1/Documents/xcode/ECEN1310Final/Mifare_SERVO/Mifare_SERVO/main.c ****                 tagNumber =1;
 360:/Users/kevinKuwata1/Documents/xcode/ECEN1310Final/Mifare_SERVO/Mifare_SERVO/main.c ****                 LCDClear();
 361:/Users/kevinKuwata1/Documents/xcode/ECEN1310Final/Mifare_SERVO/Mifare_SERVO/main.c ****                 LCDWriteString("Full");
 362:/Users/kevinKuwata1/Documents/xcode/ECEN1310Final/Mifare_SERVO/Mifare_SERVO/main.c ****                 _delay_ms(1000);
 363:/Users/kevinKuwata1/Documents/xcode/ECEN1310Final/Mifare_SERVO/Mifare_SERVO/main.c **** 
 364:/Users/kevinKuwata1/Documents/xcode/ECEN1310Final/Mifare_SERVO/Mifare_SERVO/main.c ****             }
 365:/Users/kevinKuwata1/Documents/xcode/ECEN1310Final/Mifare_SERVO/Mifare_SERVO/main.c ****             if(byte == CARD_FOUND)
 366:/Users/kevinKuwata1/Documents/xcode/ECEN1310Final/Mifare_SERVO/Mifare_SERVO/main.c ****             {
 367:/Users/kevinKuwata1/Documents/xcode/ECEN1310Final/Mifare_SERVO/Mifare_SERVO/main.c ****                 byte = mfrc522_get_card_serial(str);
 368:/Users/kevinKuwata1/Documents/xcode/ECEN1310Final/Mifare_SERVO/Mifare_SERVO/main.c ****                 if(byte == CARD_FOUND)
 369:/Users/kevinKuwata1/Documents/xcode/ECEN1310Final/Mifare_SERVO/Mifare_SERVO/main.c ****                 {
 370:/Users/kevinKuwata1/Documents/xcode/ECEN1310Final/Mifare_SERVO/Mifare_SERVO/main.c ****                     for(int i=0; i<=4; i++){
 371:/Users/kevinKuwata1/Documents/xcode/ECEN1310Final/Mifare_SERVO/Mifare_SERVO/main.c ****                         if(str[i] == ram_tag1[i] || str[i]== ram_tag2[i]){
 372:/Users/kevinKuwata1/Documents/xcode/ECEN1310Final/Mifare_SERVO/Mifare_SERVO/main.c ****                             addNext =0;//duplicate
 373:/Users/kevinKuwata1/Documents/xcode/ECEN1310Final/Mifare_SERVO/Mifare_SERVO/main.c ****                             //not likely to happen but it could
 374:/Users/kevinKuwata1/Documents/xcode/ECEN1310Final/Mifare_SERVO/Mifare_SERVO/main.c ****                         }
 375:/Users/kevinKuwata1/Documents/xcode/ECEN1310Final/Mifare_SERVO/Mifare_SERVO/main.c ****                     }//end of check if duplicate
 376:/Users/kevinKuwata1/Documents/xcode/ECEN1310Final/Mifare_SERVO/Mifare_SERVO/main.c ****                     LCDClear();
 377:/Users/kevinKuwata1/Documents/xcode/ECEN1310Final/Mifare_SERVO/Mifare_SERVO/main.c ****                     //LCDWriteString("whyyyyyy");
 378:/Users/kevinKuwata1/Documents/xcode/ECEN1310Final/Mifare_SERVO/Mifare_SERVO/main.c ****                     _delay_ms(400);
 379:/Users/kevinKuwata1/Documents/xcode/ECEN1310Final/Mifare_SERVO/Mifare_SERVO/main.c ****                     
 380:/Users/kevinKuwata1/Documents/xcode/ECEN1310Final/Mifare_SERVO/Mifare_SERVO/main.c ****                     if(tagNumber ==1 && addNext ==1){
 381:/Users/kevinKuwata1/Documents/xcode/ECEN1310Final/Mifare_SERVO/Mifare_SERVO/main.c ****                         LCDClear();
 382:/Users/kevinKuwata1/Documents/xcode/ECEN1310Final/Mifare_SERVO/Mifare_SERVO/main.c ****                         LCDWriteString("ADDING CARD 1");
 383:/Users/kevinKuwata1/Documents/xcode/ECEN1310Final/Mifare_SERVO/Mifare_SERVO/main.c ****                         _delay_ms(1000);
 384:/Users/kevinKuwata1/Documents/xcode/ECEN1310Final/Mifare_SERVO/Mifare_SERVO/main.c ****                         for(int i=0; i<5; i++){
 385:/Users/kevinKuwata1/Documents/xcode/ECEN1310Final/Mifare_SERVO/Mifare_SERVO/main.c ****                             write_eeprom_word(tag1[i], str[i]);
 386:/Users/kevinKuwata1/Documents/xcode/ECEN1310Final/Mifare_SERVO/Mifare_SERVO/main.c ****                         }
 387:/Users/kevinKuwata1/Documents/xcode/ECEN1310Final/Mifare_SERVO/Mifare_SERVO/main.c ****                         tagNumber++;
 388:/Users/kevinKuwata1/Documents/xcode/ECEN1310Final/Mifare_SERVO/Mifare_SERVO/main.c ****                         addNext =0;
 389:/Users/kevinKuwata1/Documents/xcode/ECEN1310Final/Mifare_SERVO/Mifare_SERVO/main.c ****                         deleteNext =0;
 390:/Users/kevinKuwata1/Documents/xcode/ECEN1310Final/Mifare_SERVO/Mifare_SERVO/main.c ****                         LCDClear();
 391:/Users/kevinKuwata1/Documents/xcode/ECEN1310Final/Mifare_SERVO/Mifare_SERVO/main.c ****                     }
 392:/Users/kevinKuwata1/Documents/xcode/ECEN1310Final/Mifare_SERVO/Mifare_SERVO/main.c ****                     
 393:/Users/kevinKuwata1/Documents/xcode/ECEN1310Final/Mifare_SERVO/Mifare_SERVO/main.c ****                     else if(tagNumber ==2 && addNext ==1){
 394:/Users/kevinKuwata1/Documents/xcode/ECEN1310Final/Mifare_SERVO/Mifare_SERVO/main.c ****                         LCDClear();
 395:/Users/kevinKuwata1/Documents/xcode/ECEN1310Final/Mifare_SERVO/Mifare_SERVO/main.c ****                         LCDWriteString("ADDING CARD 2");
 396:/Users/kevinKuwata1/Documents/xcode/ECEN1310Final/Mifare_SERVO/Mifare_SERVO/main.c ****                         _delay_ms(1000);
 397:/Users/kevinKuwata1/Documents/xcode/ECEN1310Final/Mifare_SERVO/Mifare_SERVO/main.c ****                         for(int i=0; i<5; i++){
 398:/Users/kevinKuwata1/Documents/xcode/ECEN1310Final/Mifare_SERVO/Mifare_SERVO/main.c ****                             write_eeprom_word(tag2[i], str[i]);
 399:/Users/kevinKuwata1/Documents/xcode/ECEN1310Final/Mifare_SERVO/Mifare_SERVO/main.c ****                         }
 400:/Users/kevinKuwata1/Documents/xcode/ECEN1310Final/Mifare_SERVO/Mifare_SERVO/main.c ****                         tagNumber++;
 401:/Users/kevinKuwata1/Documents/xcode/ECEN1310Final/Mifare_SERVO/Mifare_SERVO/main.c ****                         addNext = 0;
 402:/Users/kevinKuwata1/Documents/xcode/ECEN1310Final/Mifare_SERVO/Mifare_SERVO/main.c ****                         deleteNext =0;
 403:/Users/kevinKuwata1/Documents/xcode/ECEN1310Final/Mifare_SERVO/Mifare_SERVO/main.c ****                         LCDClear();
 404:/Users/kevinKuwata1/Documents/xcode/ECEN1310Final/Mifare_SERVO/Mifare_SERVO/main.c ****                     }
 405:/Users/kevinKuwata1/Documents/xcode/ECEN1310Final/Mifare_SERVO/Mifare_SERVO/main.c ****                     /* //find tag number
 406:/Users/kevinKuwata1/Documents/xcode/ECEN1310Final/Mifare_SERVO/Mifare_SERVO/main.c ****                      //This is what I would add if I had more time. Its difficult to find how to de
 407:/Users/kevinKuwata1/Documents/xcode/ECEN1310Final/Mifare_SERVO/Mifare_SERVO/main.c ****                      for(int i=0; i<=4; i++){
 408:/Users/kevinKuwata1/Documents/xcode/ECEN1310Final/Mifare_SERVO/Mifare_SERVO/main.c ****                      LCDClear();
 409:/Users/kevinKuwata1/Documents/xcode/ECEN1310Final/Mifare_SERVO/Mifare_SERVO/main.c ****                      LCDWriteString("REMOVING CARD");
 410:/Users/kevinKuwata1/Documents/xcode/ECEN1310Final/Mifare_SERVO/Mifare_SERVO/main.c ****                      _delay_ms(1000);
 411:/Users/kevinKuwata1/Documents/xcode/ECEN1310Final/Mifare_SERVO/Mifare_SERVO/main.c ****                      if(str[i] == ram_tag1[i])
 412:/Users/kevinKuwata1/Documents/xcode/ECEN1310Final/Mifare_SERVO/Mifare_SERVO/main.c ****                      {
 413:/Users/kevinKuwata1/Documents/xcode/ECEN1310Final/Mifare_SERVO/Mifare_SERVO/main.c ****                      eeprom_write_word(tag1[i], 0);
 414:/Users/kevinKuwata1/Documents/xcode/ECEN1310Final/Mifare_SERVO/Mifare_SERVO/main.c ****                      }
 415:/Users/kevinKuwata1/Documents/xcode/ECEN1310Final/Mifare_SERVO/Mifare_SERVO/main.c ****                      else if(str[i] == ram_tag1[i]){
 416:/Users/kevinKuwata1/Documents/xcode/ECEN1310Final/Mifare_SERVO/Mifare_SERVO/main.c ****                      reeprom_write_word(tag2[i], 0);
 417:/Users/kevinKuwata1/Documents/xcode/ECEN1310Final/Mifare_SERVO/Mifare_SERVO/main.c ****                      }
 418:/Users/kevinKuwata1/Documents/xcode/ECEN1310Final/Mifare_SERVO/Mifare_SERVO/main.c ****                      }//end of looking for which tag to delete
 419:/Users/kevinKuwata1/Documents/xcode/ECEN1310Final/Mifare_SERVO/Mifare_SERVO/main.c ****                      
 420:/Users/kevinKuwata1/Documents/xcode/ECEN1310Final/Mifare_SERVO/Mifare_SERVO/main.c ****                      */
 421:/Users/kevinKuwata1/Documents/xcode/ECEN1310Final/Mifare_SERVO/Mifare_SERVO/main.c ****                     
 422:/Users/kevinKuwata1/Documents/xcode/ECEN1310Final/Mifare_SERVO/Mifare_SERVO/main.c ****                 }//end of if card found
 423:/Users/kevinKuwata1/Documents/xcode/ECEN1310Final/Mifare_SERVO/Mifare_SERVO/main.c ****             }
 424:/Users/kevinKuwata1/Documents/xcode/ECEN1310Final/Mifare_SERVO/Mifare_SERVO/main.c ****             loadTags();
 425:/Users/kevinKuwata1/Documents/xcode/ECEN1310Final/Mifare_SERVO/Mifare_SERVO/main.c ****             byte = mfrc522_request(PICC_REQALL,str);
 426:/Users/kevinKuwata1/Documents/xcode/ECEN1310Final/Mifare_SERVO/Mifare_SERVO/main.c ****         }
 427:/Users/kevinKuwata1/Documents/xcode/ECEN1310Final/Mifare_SERVO/Mifare_SERVO/main.c ****         
 428:/Users/kevinKuwata1/Documents/xcode/ECEN1310Final/Mifare_SERVO/Mifare_SERVO/main.c ****         if(byte == CARD_FOUND && addNext !=1)
 1112               	.LM100:
 1113 00fe F1E0      		ldi r31,lo8(1)
 1114 0100 DF12      		cpse r13,r31
 1115 0102 00C0      		rjmp .L56
 1116               	.LBB146:
 429:/Users/kevinKuwata1/Documents/xcode/ECEN1310Final/Mifare_SERVO/Mifare_SERVO/main.c ****         {
 430:/Users/kevinKuwata1/Documents/xcode/ECEN1310Final/Mifare_SERVO/Mifare_SERVO/main.c ****             byte = mfrc522_get_card_serial(str);
 1118               	.LM101:
 1119 0104 CE01      		movw r24,r28
 1120 0106 0196      		adiw r24,1
 1121 0108 0E94 0000 		call mfrc522_get_card_serial
 431:/Users/kevinKuwata1/Documents/xcode/ECEN1310Final/Mifare_SERVO/Mifare_SERVO/main.c ****             if(byte == CARD_FOUND)
 1123               	.LM102:
 1124 010c 8130      		cpi r24,lo8(1)
 1125 010e 01F0      		breq .+2
 1126 0110 00C0      		rjmp .L43
 1127 0112 CE01      		movw r24,r28
 1128 0114 0196      		adiw r24,1
 1129 0116 7C01      		movw r14,r24
 1130               	.L44:
 432:/Users/kevinKuwata1/Documents/xcode/ECEN1310Final/Mifare_SERVO/Mifare_SERVO/main.c ****             {
 433:/Users/kevinKuwata1/Documents/xcode/ECEN1310Final/Mifare_SERVO/Mifare_SERVO/main.c ****                 for(byte=0;byte<5;byte++){
 434:/Users/kevinKuwata1/Documents/xcode/ECEN1310Final/Mifare_SERVO/Mifare_SERVO/main.c ****                     LCDWriteInt(str[byte], -1);
 1132               	.LM103:
 1133 0118 D701      		movw r26,r14
 1134 011a 8D91      		ld r24,X+
 1135 011c 7D01      		movw r14,r26
 1136 011e 6FEF      		ldi r22,lo8(-1)
 1137 0120 7FEF      		ldi r23,lo8(-1)
 1138 0122 90E0      		ldi r25,0
 1139 0124 0E94 0000 		call LCDWriteInt
 433:/Users/kevinKuwata1/Documents/xcode/ECEN1310Final/Mifare_SERVO/Mifare_SERVO/main.c ****                     LCDWriteInt(str[byte], -1);
 1141               	.LM104:
 1142 0128 E814      		cp r14,r8
 1143 012a F904      		cpc r15,r9
 1144 012c 01F4      		brne .L44
 1145               	.L45:
 1146 012e FE01      		movw r30,r28
 1147 0130 3196      		adiw r30,1
 1148 0132 6F01      		movw r12,r30
 1149               	.LBE146:
 1150               	.LBB162:
 401:/Users/kevinKuwata1/Documents/xcode/ECEN1310Final/Mifare_SERVO/Mifare_SERVO/main.c ****                         deleteNext =0;
 1152               	.LM105:
 1153 0134 3F01      		movw r6,r30
 1154               	.L46:
 1155               	.LBE162:
 1156               	.LBB172:
 1157               	.LBB147:
 1158               	.LBB148:
 1159               	.LBB149:
 1161               	.Ltext43:
 187:/usr/local/Cellar/avr-gcc/6.2.0/avr/include/util/delay.h **** 
 1163               	.LM106:
 1164 0136 AFE5      		ldi r26,lo8(-5537)
 1165 0138 BAEE      		ldi r27,hi8(-5537)
 1166 013a 1197      	1:	sbiw r26,1
 1167 013c 01F4      		brne 1b
 1168 013e 00C0      		rjmp .
 1169 0140 0000      		nop
 1170               	.LBE149:
 1171               	.LBE148:
 1173               	.Ltext44:
 435:/Users/kevinKuwata1/Documents/xcode/ECEN1310Final/Mifare_SERVO/Mifare_SERVO/main.c ****                     if(card_display_Delay==1){_delay_ms(1000);}
 436:/Users/kevinKuwata1/Documents/xcode/ECEN1310Final/Mifare_SERVO/Mifare_SERVO/main.c ****                 }
 437:/Users/kevinKuwata1/Documents/xcode/ECEN1310Final/Mifare_SERVO/Mifare_SERVO/main.c ****             }
 438:/Users/kevinKuwata1/Documents/xcode/ECEN1310Final/Mifare_SERVO/Mifare_SERVO/main.c ****             else
 439:/Users/kevinKuwata1/Documents/xcode/ECEN1310Final/Mifare_SERVO/Mifare_SERVO/main.c ****             { //not a valid card found
 440:/Users/kevinKuwata1/Documents/xcode/ECEN1310Final/Mifare_SERVO/Mifare_SERVO/main.c ****                 LCDWriteStringXY(0,1,"Error");
 441:/Users/kevinKuwata1/Documents/xcode/ECEN1310Final/Mifare_SERVO/Mifare_SERVO/main.c ****             }
 442:/Users/kevinKuwata1/Documents/xcode/ECEN1310Final/Mifare_SERVO/Mifare_SERVO/main.c ****             for(int i=0; i<5; i++){
 443:/Users/kevinKuwata1/Documents/xcode/ECEN1310Final/Mifare_SERVO/Mifare_SERVO/main.c ****                 _delay_ms(30);//test
 444:/Users/kevinKuwata1/Documents/xcode/ECEN1310Final/Mifare_SERVO/Mifare_SERVO/main.c ****                 LCDWriteInt(str[i], -1);//test
 1175               	.LM107:
 1176 0142 F301      		movw r30,r6
 1177 0144 8191      		ld r24,Z+
 1178 0146 3F01      		movw r6,r30
 1179 0148 6FEF      		ldi r22,lo8(-1)
 1180 014a 7FEF      		ldi r23,lo8(-1)
 1181 014c 90E0      		ldi r25,0
 1182 014e 0E94 0000 		call LCDWriteInt
 442:/Users/kevinKuwata1/Documents/xcode/ECEN1310Final/Mifare_SERVO/Mifare_SERVO/main.c ****                 _delay_ms(30);//test
 1184               	.LM108:
 1185 0152 8614      		cp r8,r6
 1186 0154 9704      		cpc r9,r7
 1187 0156 01F4      		brne .L46
 1188               	.LBE147:
 1189               	.LBB150:
 1190               	.LBB151:
 1192               	.Ltext45:
 187:/usr/local/Cellar/avr-gcc/6.2.0/avr/include/util/delay.h **** 
 1194               	.LM109:
 1195 0158 FFEF      		ldi r31,lo8(159999)
 1196 015a 20E7      		ldi r18,hi8(159999)
 1197 015c 82E0      		ldi r24,hlo8(159999)
 1198 015e F150      	1:	subi r31,1
 1199 0160 2040      		sbci r18,0
 1200 0162 8040      		sbci r24,0
 1201 0164 01F4      		brne 1b
 1202 0166 00C0      		rjmp .
 1203 0168 0000      		nop
 1204               	.LBE151:
 1205               	.LBE150:
 1207               	.Ltext46:
 445:/Users/kevinKuwata1/Documents/xcode/ECEN1310Final/Mifare_SERVO/Mifare_SERVO/main.c ****             }
 446:/Users/kevinKuwata1/Documents/xcode/ECEN1310Final/Mifare_SERVO/Mifare_SERVO/main.c ****             _delay_ms(100);//test
 447:/Users/kevinKuwata1/Documents/xcode/ECEN1310Final/Mifare_SERVO/Mifare_SERVO/main.c ****             LCDClear();//test
 1209               	.LM110:
 1210 016a 60E0      		ldi r22,0
 1211 016c 81E0      		ldi r24,lo8(1)
 1212 016e 0E94 0000 		call LCDByte
 1213 0172 A0E0      		ldi r26,lo8(card2)
 1214 0174 B0E0      		ldi r27,hi8(card2)
 1215 0176 B88F      		std Y+24,r27
 1216 0178 AF8B      		std Y+23,r26
 1217 017a 20E0      		ldi r18,lo8(ADD)
 1218 017c 422E      		mov r4,r18
 1219 017e 20E0      		ldi r18,hi8(ADD)
 1220 0180 522E      		mov r5,r18
 1221 0182 30E0      		ldi r19,lo8(DELETE)
 1222 0184 232E      		mov r2,r19
 1223 0186 30E0      		ldi r19,hi8(DELETE)
 1224 0188 332E      		mov r3,r19
 1225 018a E0E0      		ldi r30,lo8(ram_tag2)
 1226 018c F0E0      		ldi r31,hi8(ram_tag2)
 1227 018e FA8B      		std Y+18,r31
 1228 0190 E98B      		std Y+17,r30
 1229 0192 80E0      		ldi r24,lo8(ram_tag1)
 1230 0194 90E0      		ldi r25,hi8(ram_tag1)
 1231 0196 9E8B      		std Y+22,r25
 1232 0198 8D8B      		std Y+21,r24
 1233 019a A0E0      		ldi r26,lo8(card1)
 1234 019c B0E0      		ldi r27,hi8(card1)
 1235 019e BC8B      		std Y+20,r27
 1236 01a0 AB8B      		std Y+19,r26
 1237 01a2 7801      		movw r14,r16
 1238 01a4 5801      		movw r10,r16
 1239               	.L50:
 1240               	.LBB152:
 448:/Users/kevinKuwata1/Documents/xcode/ECEN1310Final/Mifare_SERVO/Mifare_SERVO/main.c ****             
 449:/Users/kevinKuwata1/Documents/xcode/ECEN1310Final/Mifare_SERVO/Mifare_SERVO/main.c ****             for(int k=0;k<5 ;k++){ //loop through id arras
 450:/Users/kevinKuwata1/Documents/xcode/ECEN1310Final/Mifare_SERVO/Mifare_SERVO/main.c ****                 LCDWriteIntXY(0,1,str[k], -1);
 1242               	.LM111:
 1243 01a6 61E0      		ldi r22,lo8(1)
 1244 01a8 80E0      		ldi r24,0
 1245 01aa 0E94 0000 		call LCDGotoXY
 1246 01ae F601      		movw r30,r12
 1247 01b0 8081      		ld r24,Z
 1248 01b2 6FEF      		ldi r22,lo8(-1)
 1249 01b4 7FEF      		ldi r23,lo8(-1)
 1250 01b6 90E0      		ldi r25,0
 1251 01b8 0E94 0000 		call LCDWriteInt
 451:/Users/kevinKuwata1/Documents/xcode/ECEN1310Final/Mifare_SERVO/Mifare_SERVO/main.c ****                 if(str[k] == card2[k] || str[k] == card1[k] || str[k] == ram_tag1[k] || str[k] ==ra
 1253               	.LM112:
 1254 01bc D601      		movw r26,r12
 1255 01be 8C91      		ld r24,X
 1256 01c0 EF89      		ldd r30,Y+23
 1257 01c2 F88D      		ldd r31,Y+24
 1258 01c4 9191      		ld r25,Z+
 1259 01c6 F88F      		std Y+24,r31
 1260 01c8 EF8B      		std Y+23,r30
 1261 01ca 8917      		cp r24,r25
 1262 01cc 01F0      		breq .L47
 1264               	.LM113:
 1265 01ce AB89      		ldd r26,Y+19
 1266 01d0 BC89      		ldd r27,Y+20
 1267 01d2 9C91      		ld r25,X
 1268 01d4 8917      		cp r24,r25
 1269 01d6 01F0      		breq .L47
 1271               	.LM114:
 1272 01d8 ED89      		ldd r30,Y+21
 1273 01da FE89      		ldd r31,Y+22
 1274 01dc 9081      		ld r25,Z
 1275 01de 8917      		cp r24,r25
 1276 01e0 01F0      		breq .L47
 1278               	.LM115:
 1279 01e2 A989      		ldd r26,Y+17
 1280 01e4 BA89      		ldd r27,Y+18
 1281 01e6 9C91      		ld r25,X
 1282 01e8 8913      		cpse r24,r25
 1283 01ea 00C0      		rjmp .L48
 1284               	.L47:
 452:/Users/kevinKuwata1/Documents/xcode/ECEN1310Final/Mifare_SERVO/Mifare_SERVO/main.c ****                 {
 453:/Users/kevinKuwata1/Documents/xcode/ECEN1310Final/Mifare_SERVO/Mifare_SERVO/main.c ****                     LCDWriteIntXY(0,1,str[k], -1);
 1286               	.LM116:
 1287 01ec 61E0      		ldi r22,lo8(1)
 1288 01ee 80E0      		ldi r24,0
 1289 01f0 0E94 0000 		call LCDGotoXY
 1290 01f4 F601      		movw r30,r12
 1291 01f6 8081      		ld r24,Z
 1292 01f8 6FEF      		ldi r22,lo8(-1)
 1293 01fa 7FEF      		ldi r23,lo8(-1)
 1294 01fc 90E0      		ldi r25,0
 1295 01fe 0E94 0000 		call LCDWriteInt
 454:/Users/kevinKuwata1/Documents/xcode/ECEN1310Final/Mifare_SERVO/Mifare_SERVO/main.c ****                     LCDWriteString("MATCH");
 1297               	.LM117:
 1298 0202 80E0      		ldi r24,lo8(.LC13)
 1299 0204 90E0      		ldi r25,hi8(.LC13)
 1300 0206 0E94 0000 		call LCDWriteString
 1301               	.LBB153:
 1302               	.LBB154:
 1304               	.Ltext47:
 187:/usr/local/Cellar/avr-gcc/6.2.0/avr/include/util/delay.h **** 
 1306               	.LM118:
 1307 020a FFE7      		ldi r31,lo8(79999)
 1308 020c 28E3      		ldi r18,hi8(79999)
 1309 020e 81E0      		ldi r24,hlo8(79999)
 1310 0210 F150      	1:	subi r31,1
 1311 0212 2040      		sbci r18,0
 1312 0214 8040      		sbci r24,0
 1313 0216 01F4      		brne 1b
 1314 0218 00C0      		rjmp .
 1315 021a 0000      		nop
 1316               	.LBE154:
 1317               	.LBE153:
 1319               	.Ltext48:
 455:/Users/kevinKuwata1/Documents/xcode/ECEN1310Final/Mifare_SERVO/Mifare_SERVO/main.c ****                     _delay_ms(50);
 456:/Users/kevinKuwata1/Documents/xcode/ECEN1310Final/Mifare_SERVO/Mifare_SERVO/main.c ****                     LCDClear();
 1321               	.LM119:
 1322 021c 60E0      		ldi r22,0
 1323 021e 81E0      		ldi r24,lo8(1)
 1324 0220 0E94 0000 		call LCDByte
 457:/Users/kevinKuwata1/Documents/xcode/ECEN1310Final/Mifare_SERVO/Mifare_SERVO/main.c ****                     validCard = 1;
 1326               	.LM120:
 1327 0224 A1E0      		ldi r26,lo8(1)
 1328 0226 B0E0      		ldi r27,0
 1329 0228 B093 0000 		sts validCard+1,r27
 1330 022c A093 0000 		sts validCard,r26
 1331               	.L49:
 1332 0230 BFEF      		ldi r27,-1
 1333 0232 CB1A      		sub r12,r27
 1334 0234 DB0A      		sbc r13,r27
 1335 0236 EFEF      		ldi r30,-1
 1336 0238 4E1A      		sub r4,r30
 1337 023a 5E0A      		sbc r5,r30
 1338 023c FFEF      		ldi r31,-1
 1339 023e 2F1A      		sub r2,r31
 1340 0240 3F0A      		sbc r3,r31
 1341 0242 8989      		ldd r24,Y+17
 1342 0244 9A89      		ldd r25,Y+18
 1343 0246 0196      		adiw r24,1
 1344 0248 9A8B      		std Y+18,r25
 1345 024a 898B      		std Y+17,r24
 1346 024c AD89      		ldd r26,Y+21
 1347 024e BE89      		ldd r27,Y+22
 1348 0250 1196      		adiw r26,1
 1349 0252 BE8B      		std Y+22,r27
 1350 0254 AD8B      		std Y+21,r26
 1351 0256 EB89      		ldd r30,Y+19
 1352 0258 FC89      		ldd r31,Y+20
 1353 025a 3196      		adiw r30,1
 1354 025c FC8B      		std Y+20,r31
 1355 025e EB8B      		std Y+19,r30
 449:/Users/kevinKuwata1/Documents/xcode/ECEN1310Final/Mifare_SERVO/Mifare_SERVO/main.c ****                 LCDWriteIntXY(0,1,str[k], -1);
 1357               	.LM121:
 1358 0260 6C14      		cp r6,r12
 1359 0262 7D04      		cpc r7,r13
 1360 0264 01F0      		breq .+2
 1361 0266 00C0      		rjmp .L50
 1362               	.LBE152:
 458:/Users/kevinKuwata1/Documents/xcode/ECEN1310Final/Mifare_SERVO/Mifare_SERVO/main.c ****                 }
 459:/Users/kevinKuwata1/Documents/xcode/ECEN1310Final/Mifare_SERVO/Mifare_SERVO/main.c ****                 else if(str[k] == ADD[k]){
 460:/Users/kevinKuwata1/Documents/xcode/ECEN1310Final/Mifare_SERVO/Mifare_SERVO/main.c ****                     //nextTag read add
 461:/Users/kevinKuwata1/Documents/xcode/ECEN1310Final/Mifare_SERVO/Mifare_SERVO/main.c ****                     addNext = 1; //add the next tag
 462:/Users/kevinKuwata1/Documents/xcode/ECEN1310Final/Mifare_SERVO/Mifare_SERVO/main.c ****                     
 463:/Users/kevinKuwata1/Documents/xcode/ECEN1310Final/Mifare_SERVO/Mifare_SERVO/main.c ****                 } //end of add
 464:/Users/kevinKuwata1/Documents/xcode/ECEN1310Final/Mifare_SERVO/Mifare_SERVO/main.c ****                 else if(str[k] == DELETE[k]){
 465:/Users/kevinKuwata1/Documents/xcode/ECEN1310Final/Mifare_SERVO/Mifare_SERVO/main.c ****                     deleteNext =1;
 466:/Users/kevinKuwata1/Documents/xcode/ECEN1310Final/Mifare_SERVO/Mifare_SERVO/main.c ****                 }
 467:/Users/kevinKuwata1/Documents/xcode/ECEN1310Final/Mifare_SERVO/Mifare_SERVO/main.c ****                 else{
 468:/Users/kevinKuwata1/Documents/xcode/ECEN1310Final/Mifare_SERVO/Mifare_SERVO/main.c ****                     validCard = -1;
 469:/Users/kevinKuwata1/Documents/xcode/ECEN1310Final/Mifare_SERVO/Mifare_SERVO/main.c ****                     deleteNext = 0;
 470:/Users/kevinKuwata1/Documents/xcode/ECEN1310Final/Mifare_SERVO/Mifare_SERVO/main.c ****                     addNext = 0;
 471:/Users/kevinKuwata1/Documents/xcode/ECEN1310Final/Mifare_SERVO/Mifare_SERVO/main.c ****                 }
 472:/Users/kevinKuwata1/Documents/xcode/ECEN1310Final/Mifare_SERVO/Mifare_SERVO/main.c ****             } //end of for loop checking if what type of tag
 473:/Users/kevinKuwata1/Documents/xcode/ECEN1310Final/Mifare_SERVO/Mifare_SERVO/main.c ****             if(validCard == 1){
 1364               	.LM122:
 1365 0268 8091 0000 		lds r24,validCard
 1366 026c 9091 0000 		lds r25,validCard+1
 1367 0270 0197      		sbiw r24,1
 1368 0272 01F4      		brne .L51
 474:/Users/kevinKuwata1/Documents/xcode/ECEN1310Final/Mifare_SERVO/Mifare_SERVO/main.c ****                 LCDClear();
 1370               	.LM123:
 1371 0274 60E0      		ldi r22,0
 1372 0276 81E0      		ldi r24,lo8(1)
 1373 0278 0E94 0000 		call LCDByte
 1374               	.LBB155:
 1375               	.LBB156:
 1377               	.Ltext49:
 187:/usr/local/Cellar/avr-gcc/6.2.0/avr/include/util/delay.h **** 
 1379               	.LM124:
 1380 027c FFEF      		ldi r31,lo8(799999)
 1381 027e 24E3      		ldi r18,hi8(799999)
 1382 0280 8CE0      		ldi r24,hlo8(799999)
 1383 0282 F150      	1:	subi r31,1
 1384 0284 2040      		sbci r18,0
 1385 0286 8040      		sbci r24,0
 1386 0288 01F4      		brne 1b
 1387 028a 00C0      		rjmp .
 1388 028c 0000      		nop
 1389               	.LBE156:
 1390               	.LBE155:
 1392               	.Ltext50:
 475:/Users/kevinKuwata1/Documents/xcode/ECEN1310Final/Mifare_SERVO/Mifare_SERVO/main.c ****                 _delay_ms(500);
 476:/Users/kevinKuwata1/Documents/xcode/ECEN1310Final/Mifare_SERVO/Mifare_SERVO/main.c ****                 LCDWriteString("SUCCESS");
 1394               	.LM125:
 1395 028e 80E0      		ldi r24,lo8(.LC14)
 1396 0290 90E0      		ldi r25,hi8(.LC14)
 1397 0292 0E94 0000 		call LCDWriteString
 477:/Users/kevinKuwata1/Documents/xcode/ECEN1310Final/Mifare_SERVO/Mifare_SERVO/main.c ****                 validTag();
 1399               	.LM126:
 1400 0296 0E94 0000 		call validTag
 478:/Users/kevinKuwata1/Documents/xcode/ECEN1310Final/Mifare_SERVO/Mifare_SERVO/main.c ****                 open();
 1402               	.LM127:
 1403 029a 0E94 0000 		call open
 479:/Users/kevinKuwata1/Documents/xcode/ECEN1310Final/Mifare_SERVO/Mifare_SERVO/main.c ****                 validCard=5;
 1405               	.LM128:
 1406 029e A5E0      		ldi r26,lo8(5)
 1407 02a0 B0E0      		ldi r27,0
 1408 02a2 B093 0000 		sts validCard+1,r27
 1409 02a6 A093 0000 		sts validCard,r26
 1410               	.LBB157:
 1411               	.LBB158:
 1413               	.Ltext51:
 187:/usr/local/Cellar/avr-gcc/6.2.0/avr/include/util/delay.h **** 
 1415               	.LM129:
 1416 02aa BFEF      		ldi r27,lo8(1599999)
 1417 02ac E9E6      		ldi r30,hi8(1599999)
 1418 02ae F8E1      		ldi r31,hlo8(1599999)
 1419 02b0 B150      	1:	subi r27,1
 1420 02b2 E040      		sbci r30,0
 1421 02b4 F040      		sbci r31,0
 1422 02b6 01F4      		brne 1b
 1423 02b8 00C0      		rjmp .
 1424 02ba 0000      		nop
 1425               	.LBE158:
 1426               	.LBE157:
 1428               	.Ltext52:
 480:/Users/kevinKuwata1/Documents/xcode/ECEN1310Final/Mifare_SERVO/Mifare_SERVO/main.c ****                 deleteNext =0;
 481:/Users/kevinKuwata1/Documents/xcode/ECEN1310Final/Mifare_SERVO/Mifare_SERVO/main.c ****                 _delay_ms(1000);
 482:/Users/kevinKuwata1/Documents/xcode/ECEN1310Final/Mifare_SERVO/Mifare_SERVO/main.c ****                 close();
 1430               	.LM130:
 1431 02bc 0E94 0000 		call close
 480:/Users/kevinKuwata1/Documents/xcode/ECEN1310Final/Mifare_SERVO/Mifare_SERVO/main.c ****                 deleteNext =0;
 1433               	.LM131:
 1434 02c0 7801      		movw r14,r16
 1435               	.L51:
 483:/Users/kevinKuwata1/Documents/xcode/ECEN1310Final/Mifare_SERVO/Mifare_SERVO/main.c ****                 
 484:/Users/kevinKuwata1/Documents/xcode/ECEN1310Final/Mifare_SERVO/Mifare_SERVO/main.c ****             } //end if test worked
 485:/Users/kevinKuwata1/Documents/xcode/ECEN1310Final/Mifare_SERVO/Mifare_SERVO/main.c ****             if(validCard == -1 && addNext !=1){
 1437               	.LM132:
 1438 02c2 8091 0000 		lds r24,validCard
 1439 02c6 9091 0000 		lds r25,validCard+1
 1440 02ca 0196      		adiw r24,1
 1441 02cc 01F4      		brne .L42
 1443               	.LM133:
 1444 02ce 81E0      		ldi r24,1
 1445 02d0 A816      		cp r10,r24
 1446 02d2 B104      		cpc r11,__zero_reg__
 1447 02d4 01F0      		breq .L42
 486:/Users/kevinKuwata1/Documents/xcode/ECEN1310Final/Mifare_SERVO/Mifare_SERVO/main.c ****                 LCDClear();
 1449               	.LM134:
 1450 02d6 60E0      		ldi r22,0
 1451 02d8 81E0      		ldi r24,lo8(1)
 1452 02da 0E94 0000 		call LCDByte
 1453               	.LBB159:
 1454               	.LBB160:
 1456               	.Ltext53:
 187:/usr/local/Cellar/avr-gcc/6.2.0/avr/include/util/delay.h **** 
 1458               	.LM135:
 1459 02de 9FEF      		ldi r25,lo8(159999)
 1460 02e0 A0E7      		ldi r26,hi8(159999)
 1461 02e2 B2E0      		ldi r27,hlo8(159999)
 1462 02e4 9150      	1:	subi r25,1
 1463 02e6 A040      		sbci r26,0
 1464 02e8 B040      		sbci r27,0
 1465 02ea 01F4      		brne 1b
 1466 02ec 00C0      		rjmp .
 1467 02ee 0000      		nop
 1468               	.LBE160:
 1469               	.LBE159:
 1471               	.Ltext54:
 487:/Users/kevinKuwata1/Documents/xcode/ECEN1310Final/Mifare_SERVO/Mifare_SERVO/main.c ****                 _delay_ms(100);
 488:/Users/kevinKuwata1/Documents/xcode/ECEN1310Final/Mifare_SERVO/Mifare_SERVO/main.c ****                 LCDWriteString("not valid");
 1473               	.LM136:
 1474 02f0 80E0      		ldi r24,lo8(.LC15)
 1475 02f2 90E0      		ldi r25,hi8(.LC15)
 1476 02f4 0E94 0000 		call LCDWriteString
 489:/Users/kevinKuwata1/Documents/xcode/ECEN1310Final/Mifare_SERVO/Mifare_SERVO/main.c ****                 close();
 1478               	.LM137:
 1479 02f8 0E94 0000 		call close
 1480               	.L42:
 1481               	.LBE172:
 490:/Users/kevinKuwata1/Documents/xcode/ECEN1310Final/Mifare_SERVO/Mifare_SERVO/main.c ****             } //end of loop for checking valid card
 491:/Users/kevinKuwata1/Documents/xcode/ECEN1310Final/Mifare_SERVO/Mifare_SERVO/main.c ****             
 492:/Users/kevinKuwata1/Documents/xcode/ECEN1310Final/Mifare_SERVO/Mifare_SERVO/main.c ****             if(card_display_Delay ==1){
 493:/Users/kevinKuwata1/Documents/xcode/ECEN1310Final/Mifare_SERVO/Mifare_SERVO/main.c ****                 _delay_ms(750);
 494:/Users/kevinKuwata1/Documents/xcode/ECEN1310Final/Mifare_SERVO/Mifare_SERVO/main.c ****                 LCDClear();
 495:/Users/kevinKuwata1/Documents/xcode/ECEN1310Final/Mifare_SERVO/Mifare_SERVO/main.c ****                 LCDWriteString("CHECKED");
 496:/Users/kevinKuwata1/Documents/xcode/ECEN1310Final/Mifare_SERVO/Mifare_SERVO/main.c ****                 _delay_ms(250);
 497:/Users/kevinKuwata1/Documents/xcode/ECEN1310Final/Mifare_SERVO/Mifare_SERVO/main.c ****                 LCDClear();
 498:/Users/kevinKuwata1/Documents/xcode/ECEN1310Final/Mifare_SERVO/Mifare_SERVO/main.c ****             }
 499:/Users/kevinKuwata1/Documents/xcode/ECEN1310Final/Mifare_SERVO/Mifare_SERVO/main.c ****             
 500:/Users/kevinKuwata1/Documents/xcode/ECEN1310Final/Mifare_SERVO/Mifare_SERVO/main.c ****         } //end of valid card found
 501:/Users/kevinKuwata1/Documents/xcode/ECEN1310Final/Mifare_SERVO/Mifare_SERVO/main.c ****         
 502:/Users/kevinKuwata1/Documents/xcode/ECEN1310Final/Mifare_SERVO/Mifare_SERVO/main.c ****         LCDWriteStringXY(0,0,"Present Tag");
 1483               	.LM138:
 1484 02fc 60E0      		ldi r22,0
 1485 02fe 80E0      		ldi r24,0
 1486 0300 0E94 0000 		call LCDGotoXY
 1487 0304 80E0      		ldi r24,lo8(.LC16)
 1488 0306 90E0      		ldi r25,hi8(.LC16)
 1489 0308 0E94 0000 		call LCDWriteString
 291:/Users/kevinKuwata1/Documents/xcode/ECEN1310Final/Mifare_SERVO/Mifare_SERVO/main.c ****         byte = mfrc522_request(PICC_REQALL,str);
 1491               	.LM139:
 1492 030c 8501      		movw r16,r10
 1493 030e 00C0      		rjmp .L52
 1494               	.L32:
 299:/Users/kevinKuwata1/Documents/xcode/ECEN1310Final/Mifare_SERVO/Mifare_SERVO/main.c ****             LCDWriteString("delete tag acivated");
 1496               	.LM140:
 1497 0310 60E0      		ldi r22,0
 1498 0312 81E0      		ldi r24,lo8(1)
 1499 0314 0E94 0000 		call LCDByte
 300:/Users/kevinKuwata1/Documents/xcode/ECEN1310Final/Mifare_SERVO/Mifare_SERVO/main.c ****             _delay_ms(800);
 1501               	.LM141:
 1502 0318 80E0      		ldi r24,lo8(.LC2)
 1503 031a 90E0      		ldi r25,hi8(.LC2)
 1504 031c 0E94 0000 		call LCDWriteString
 1505               	.LBB173:
 1506               	.LBB174:
 1508               	.Ltext55:
 187:/usr/local/Cellar/avr-gcc/6.2.0/avr/include/util/delay.h **** 
 1510               	.LM142:
 1511 0320 2FEF      		ldi r18,lo8(1279999)
 1512 0322 87E8      		ldi r24,hi8(1279999)
 1513 0324 93E1      		ldi r25,hlo8(1279999)
 1514 0326 2150      	1:	subi r18,1
 1515 0328 8040      		sbci r24,0
 1516 032a 9040      		sbci r25,0
 1517 032c 01F4      		brne 1b
 1518 032e 00C0      		rjmp .
 1519 0330 0000      		nop
 1520               	.LBE174:
 1521               	.LBE173:
 1523               	.Ltext56:
 302:/Users/kevinKuwata1/Documents/xcode/ECEN1310Final/Mifare_SERVO/Mifare_SERVO/main.c ****             LCDClear();
 1525               	.LM143:
 1526 0332 BE01      		movw r22,r28
 1527 0334 6F5F      		subi r22,-1
 1528 0336 7F4F      		sbci r23,-1
 1529 0338 82E5      		ldi r24,lo8(82)
 1530 033a 0E94 0000 		call mfrc522_request
 303:/Users/kevinKuwata1/Documents/xcode/ECEN1310Final/Mifare_SERVO/Mifare_SERVO/main.c ****             LCDWriteString("Scan again to ");
 1532               	.LM144:
 1533 033e 60E0      		ldi r22,0
 1534 0340 81E0      		ldi r24,lo8(1)
 1535 0342 0E94 0000 		call LCDByte
 304:/Users/kevinKuwata1/Documents/xcode/ECEN1310Final/Mifare_SERVO/Mifare_SERVO/main.c ****             LCDWriteStringXY(0, 1, "delete all tags.");
 1537               	.LM145:
 1538 0346 80E0      		ldi r24,lo8(.LC3)
 1539 0348 90E0      		ldi r25,hi8(.LC3)
 1540 034a 0E94 0000 		call LCDWriteString
 305:/Users/kevinKuwata1/Documents/xcode/ECEN1310Final/Mifare_SERVO/Mifare_SERVO/main.c ****             byte = mfrc522_request(PICC_REQALL,str);
 1542               	.LM146:
 1543 034e 61E0      		ldi r22,lo8(1)
 1544 0350 80E0      		ldi r24,0
 1545 0352 0E94 0000 		call LCDGotoXY
 1546 0356 80E0      		ldi r24,lo8(.LC4)
 1547 0358 90E0      		ldi r25,hi8(.LC4)
 1548 035a 0E94 0000 		call LCDWriteString
 306:/Users/kevinKuwata1/Documents/xcode/ECEN1310Final/Mifare_SERVO/Mifare_SERVO/main.c ****             if(byte == CARD_FOUND)
 1550               	.LM147:
 1551 035e BE01      		movw r22,r28
 1552 0360 6F5F      		subi r22,-1
 1553 0362 7F4F      		sbci r23,-1
 1554 0364 82E5      		ldi r24,lo8(82)
 1555 0366 0E94 0000 		call mfrc522_request
 307:/Users/kevinKuwata1/Documents/xcode/ECEN1310Final/Mifare_SERVO/Mifare_SERVO/main.c ****             {
 1557               	.LM148:
 1558 036a 8130      		cpi r24,lo8(1)
 1559 036c 01F0      		breq .+2
 1560 036e 00C0      		rjmp .L28
 1561               	.LBB175:
 309:/Users/kevinKuwata1/Documents/xcode/ECEN1310Final/Mifare_SERVO/Mifare_SERVO/main.c ****                 if(byte == CARD_FOUND)
 1563               	.LM149:
 1564 0370 CE01      		movw r24,r28
 1565 0372 0196      		adiw r24,1
 1566 0374 0E94 0000 		call mfrc522_get_card_serial
 310:/Users/kevinKuwata1/Documents/xcode/ECEN1310Final/Mifare_SERVO/Mifare_SERVO/main.c ****                 {
 1568               	.LM150:
 1569 0378 8130      		cpi r24,lo8(1)
 1570 037a 01F0      		breq .+2
 1571 037c 00C0      		rjmp .L28
 1572 037e FE01      		movw r30,r28
 1573 0380 3196      		adiw r30,1
 1574 0382 A0E0      		ldi r26,lo8(DELETE)
 1575 0384 B0E0      		ldi r27,hi8(DELETE)
 1576               	.L30:
 1577               	.LBB176:
 318:/Users/kevinKuwata1/Documents/xcode/ECEN1310Final/Mifare_SERVO/Mifare_SERVO/main.c ****                                 deleteNext =1;//duplicate
 1579               	.LM151:
 1580 0386 9191      		ld r25,Z+
 1581 0388 8D91      		ld r24,X+
 317:/Users/kevinKuwata1/Documents/xcode/ECEN1310Final/Mifare_SERVO/Mifare_SERVO/main.c ****                             if(str[i] == DELETE[i]){
 1583               	.LM152:
 1584 038a E815      		cp r30,r8
 1585 038c F905      		cpc r31,r9
 1586 038e 01F4      		brne .L30
 1587               	.LBE176:
 325:/Users/kevinKuwata1/Documents/xcode/ECEN1310Final/Mifare_SERVO/Mifare_SERVO/main.c ****                         LCDClear();
 1589               	.LM153:
 1590 0390 9813      		cpse r25,r24
 1591 0392 00C0      		rjmp .L53
 326:/Users/kevinKuwata1/Documents/xcode/ECEN1310Final/Mifare_SERVO/Mifare_SERVO/main.c ****                         LCDWriteString("Removing Tags");
 1593               	.LM154:
 1594 0394 60E0      		ldi r22,0
 1595 0396 81E0      		ldi r24,lo8(1)
 1596 0398 0E94 0000 		call LCDByte
 327:/Users/kevinKuwata1/Documents/xcode/ECEN1310Final/Mifare_SERVO/Mifare_SERVO/main.c ****                         _delay_ms(1000);
 1598               	.LM155:
 1599 039c 80E0      		ldi r24,lo8(.LC5)
 1600 039e 90E0      		ldi r25,hi8(.LC5)
 1601 03a0 0E94 0000 		call LCDWriteString
 1602               	.LBB177:
 1603               	.LBB178:
 1605               	.Ltext57:
 187:/usr/local/Cellar/avr-gcc/6.2.0/avr/include/util/delay.h **** 
 1607               	.LM156:
 1608 03a4 AFEF      		ldi r26,lo8(1599999)
 1609 03a6 B9E6      		ldi r27,hi8(1599999)
 1610 03a8 E8E1      		ldi r30,hlo8(1599999)
 1611 03aa A150      	1:	subi r26,1
 1612 03ac B040      		sbci r27,0
 1613 03ae E040      		sbci r30,0
 1614 03b0 01F4      		brne 1b
 1615 03b2 00C0      		rjmp .
 1616 03b4 0000      		nop
 1617 03b6 40E0      		ldi r20,lo8(tag1)
 1618 03b8 E42E      		mov r14,r20
 1619 03ba 40E0      		ldi r20,hi8(tag1)
 1620 03bc F42E      		mov r15,r20
 1621 03be 50E0      		ldi r21,lo8(tag2)
 1622 03c0 C52E      		mov r12,r21
 1623 03c2 50E0      		ldi r21,hi8(tag2)
 1624 03c4 D52E      		mov r13,r21
 1625               	.L31:
 1626               	.LBE178:
 1627               	.LBE177:
 1628               	.LBB179:
 1630               	.Ltext58:
 330:/Users/kevinKuwata1/Documents/xcode/ECEN1310Final/Mifare_SERVO/Mifare_SERVO/main.c ****                             write_eeprom_word(tag2[i], 0);
 1632               	.LM157:
 1633 03c6 D701      		movw r26,r14
 1634 03c8 8D91      		ld r24,X+
 1635 03ca 7D01      		movw r14,r26
 1636 03cc 60E0      		ldi r22,0
 1637 03ce 70E0      		ldi r23,0
 1638 03d0 90E0      		ldi r25,0
 1639 03d2 0E94 0000 		call eeprom_write_word
 331:/Users/kevinKuwata1/Documents/xcode/ECEN1310Final/Mifare_SERVO/Mifare_SERVO/main.c ****                         }
 1641               	.LM158:
 1642 03d6 F601      		movw r30,r12
 1643 03d8 8191      		ld r24,Z+
 1644 03da 6F01      		movw r12,r30
 1645 03dc 60E0      		ldi r22,0
 1646 03de 70E0      		ldi r23,0
 1647 03e0 90E0      		ldi r25,0
 1648 03e2 0E94 0000 		call eeprom_write_word
 329:/Users/kevinKuwata1/Documents/xcode/ECEN1310Final/Mifare_SERVO/Mifare_SERVO/main.c ****                             write_eeprom_word(tag1[i], 0);
 1650               	.LM159:
 1651 03e6 F0E0      		ldi r31,lo8(tag1+5)
 1652 03e8 EF16      		cp r14,r31
 1653 03ea F0E0      		ldi r31,hi8(tag1+5)
 1654 03ec FF06      		cpc r15,r31
 1655 03ee 01F4      		brne .L31
 1656               	.LBE179:
 333:/Users/kevinKuwata1/Documents/xcode/ECEN1310Final/Mifare_SERVO/Mifare_SERVO/main.c ****                         deleteNext =0;
 1658               	.LM160:
 1659 03f0 81E0      		ldi r24,lo8(1)
 1660 03f2 90E0      		ldi r25,0
 1661 03f4 9093 0000 		sts tagNumber+1,r25
 1662 03f8 8093 0000 		sts tagNumber,r24
 335:/Users/kevinKuwata1/Documents/xcode/ECEN1310Final/Mifare_SERVO/Mifare_SERVO/main.c ****                         LCDWriteString("Tags Erased");
 1664               	.LM161:
 1665 03fc 60E0      		ldi r22,0
 1666 03fe 0E94 0000 		call LCDByte
 336:/Users/kevinKuwata1/Documents/xcode/ECEN1310Final/Mifare_SERVO/Mifare_SERVO/main.c ****                         _delay_ms(300);
 1668               	.LM162:
 1669 0402 80E0      		ldi r24,lo8(.LC6)
 1670 0404 90E0      		ldi r25,hi8(.LC6)
 1671 0406 0E94 0000 		call LCDWriteString
 1672               	.LBB180:
 1673               	.LBB181:
 1675               	.Ltext59:
 187:/usr/local/Cellar/avr-gcc/6.2.0/avr/include/util/delay.h **** 
 1677               	.LM163:
 1678 040a 9FEF      		ldi r25,lo8(479999)
 1679 040c A2E5      		ldi r26,hi8(479999)
 1680 040e B7E0      		ldi r27,hlo8(479999)
 1681 0410 9150      	1:	subi r25,1
 1682 0412 A040      		sbci r26,0
 1683 0414 B040      		sbci r27,0
 1684 0416 01F4      		brne 1b
 1685 0418 00C0      		rjmp .
 1686 041a 0000      		nop
 1687               	.LBE181:
 1688               	.LBE180:
 1690               	.Ltext60:
 338:/Users/kevinKuwata1/Documents/xcode/ECEN1310Final/Mifare_SERVO/Mifare_SERVO/main.c **** 
 1692               	.LM164:
 1693 041c 1092 0000 		sts tagNumber+1,__zero_reg__
 1694 0420 1092 0000 		sts tagNumber,__zero_reg__
 1695               	.L53:
 341:/Users/kevinKuwata1/Documents/xcode/ECEN1310Final/Mifare_SERVO/Mifare_SERVO/main.c ****                    // addNext =0;
 1697               	.LM165:
 1698 0424 E12C      		mov r14,__zero_reg__
 1699 0426 F12C      		mov r15,__zero_reg__
 1700               	.L28:
 1701               	.LBE175:
 345:/Users/kevinKuwata1/Documents/xcode/ECEN1310Final/Mifare_SERVO/Mifare_SERVO/main.c ****             byte = mfrc522_request(PICC_REQALL,str);
 1703               	.LM166:
 1704 0428 0E94 0000 		call loadTags
 346:/Users/kevinKuwata1/Documents/xcode/ECEN1310Final/Mifare_SERVO/Mifare_SERVO/main.c ****         }//end of delete next
 1706               	.LM167:
 1707 042c BE01      		movw r22,r28
 1708 042e 6F5F      		subi r22,-1
 1709 0430 7F4F      		sbci r23,-1
 1710 0432 82E5      		ldi r24,lo8(82)
 1711 0434 0E94 0000 		call mfrc522_request
 1712 0438 D82E      		mov r13,r24
 1713 043a 00C0      		rjmp .L26
 1714               	.L41:
 350:/Users/kevinKuwata1/Documents/xcode/ECEN1310Final/Mifare_SERVO/Mifare_SERVO/main.c ****             LCDClear();
 1716               	.LM168:
 1717 043c BE01      		movw r22,r28
 1718 043e 6F5F      		subi r22,-1
 1719 0440 7F4F      		sbci r23,-1
 1720 0442 82E5      		ldi r24,lo8(82)
 1721 0444 0E94 0000 		call mfrc522_request
 351:/Users/kevinKuwata1/Documents/xcode/ECEN1310Final/Mifare_SERVO/Mifare_SERVO/main.c ****             LCDWriteString("Scan tag to ");
 1723               	.LM169:
 1724 0448 60E0      		ldi r22,0
 1725 044a 81E0      		ldi r24,lo8(1)
 1726 044c 0E94 0000 		call LCDByte
 352:/Users/kevinKuwata1/Documents/xcode/ECEN1310Final/Mifare_SERVO/Mifare_SERVO/main.c ****             LCDWriteStringXY(0, 1, "be added.");
 1728               	.LM170:
 1729 0450 80E0      		ldi r24,lo8(.LC7)
 1730 0452 90E0      		ldi r25,hi8(.LC7)
 1731 0454 0E94 0000 		call LCDWriteString
 353:/Users/kevinKuwata1/Documents/xcode/ECEN1310Final/Mifare_SERVO/Mifare_SERVO/main.c ****             byte = mfrc522_request(PICC_REQALL,str);
 1733               	.LM171:
 1734 0458 61E0      		ldi r22,lo8(1)
 1735 045a 80E0      		ldi r24,0
 1736 045c 0E94 0000 		call LCDGotoXY
 1737 0460 80E0      		ldi r24,lo8(.LC8)
 1738 0462 90E0      		ldi r25,hi8(.LC8)
 1739 0464 0E94 0000 		call LCDWriteString
 354:/Users/kevinKuwata1/Documents/xcode/ECEN1310Final/Mifare_SERVO/Mifare_SERVO/main.c ****             
 1741               	.LM172:
 1742 0468 BE01      		movw r22,r28
 1743 046a 6F5F      		subi r22,-1
 1744 046c 7F4F      		sbci r23,-1
 1745 046e 82E5      		ldi r24,lo8(82)
 1746 0470 0E94 0000 		call mfrc522_request
 1747 0474 D82E      		mov r13,r24
 356:/Users/kevinKuwata1/Documents/xcode/ECEN1310Final/Mifare_SERVO/Mifare_SERVO/main.c ****             {
 1749               	.LM173:
 1750 0476 8091 0000 		lds r24,tagNumber
 1751 047a 9091 0000 		lds r25,tagNumber+1
 1752 047e 0397      		sbiw r24,3
 1753 0480 04F0      		brlt .L34
 359:/Users/kevinKuwata1/Documents/xcode/ECEN1310Final/Mifare_SERVO/Mifare_SERVO/main.c ****                 LCDClear();
 1755               	.LM174:
 1756 0482 1093 0000 		sts tagNumber+1,r17
 1757 0486 0093 0000 		sts tagNumber,r16
 360:/Users/kevinKuwata1/Documents/xcode/ECEN1310Final/Mifare_SERVO/Mifare_SERVO/main.c ****                 LCDWriteString("Full");
 1759               	.LM175:
 1760 048a 60E0      		ldi r22,0
 1761 048c 81E0      		ldi r24,lo8(1)
 1762 048e 0E94 0000 		call LCDByte
 361:/Users/kevinKuwata1/Documents/xcode/ECEN1310Final/Mifare_SERVO/Mifare_SERVO/main.c ****                 _delay_ms(1000);
 1764               	.LM176:
 1765 0492 80E0      		ldi r24,lo8(.LC9)
 1766 0494 90E0      		ldi r25,hi8(.LC9)
 1767 0496 0E94 0000 		call LCDWriteString
 1768               	.LBB182:
 1769               	.LBB183:
 1771               	.Ltext61:
 187:/usr/local/Cellar/avr-gcc/6.2.0/avr/include/util/delay.h **** 
 1773               	.LM177:
 1774 049a FFEF      		ldi r31,lo8(1599999)
 1775 049c 29E6      		ldi r18,hi8(1599999)
 1776 049e 88E1      		ldi r24,hlo8(1599999)
 1777 04a0 F150      	1:	subi r31,1
 1778 04a2 2040      		sbci r18,0
 1779 04a4 8040      		sbci r24,0
 1780 04a6 01F4      		brne 1b
 1781 04a8 00C0      		rjmp .
 1782 04aa 0000      		nop
 1783               	.LBE183:
 1784               	.LBE182:
 1786               	.Ltext62:
 358:/Users/kevinKuwata1/Documents/xcode/ECEN1310Final/Mifare_SERVO/Mifare_SERVO/main.c ****                 tagNumber =1;
 1788               	.LM178:
 1789 04ac 8701      		movw r16,r14
 1790               	.L34:
 365:/Users/kevinKuwata1/Documents/xcode/ECEN1310Final/Mifare_SERVO/Mifare_SERVO/main.c ****             {
 1792               	.LM179:
 1793 04ae 91E0      		ldi r25,lo8(1)
 1794 04b0 D912      		cpse r13,r25
 1795 04b2 00C0      		rjmp .L35
 1796               	.LBB184:
 367:/Users/kevinKuwata1/Documents/xcode/ECEN1310Final/Mifare_SERVO/Mifare_SERVO/main.c ****                 if(byte == CARD_FOUND)
 1798               	.LM180:
 1799 04b4 CE01      		movw r24,r28
 1800 04b6 0196      		adiw r24,1
 1801 04b8 0E94 0000 		call mfrc522_get_card_serial
 368:/Users/kevinKuwata1/Documents/xcode/ECEN1310Final/Mifare_SERVO/Mifare_SERVO/main.c ****                 {
 1803               	.LM181:
 1804 04bc 8130      		cpi r24,lo8(1)
 1805 04be 01F0      		breq .+2
 1806 04c0 00C0      		rjmp .L35
 1807 04c2 DE01      		movw r26,r28
 1808 04c4 1196      		adiw r26,1
 1809 04c6 6D01      		movw r12,r26
 1810 04c8 20E0      		ldi r18,lo8(ram_tag1)
 1811 04ca 30E0      		ldi r19,hi8(ram_tag1)
 1812 04cc E0E0      		ldi r30,lo8(ram_tag2)
 1813 04ce F0E0      		ldi r31,hi8(ram_tag2)
 1814 04d0 5D01      		movw r10,r26
 1815               	.L37:
 1816               	.LBB163:
 371:/Users/kevinKuwata1/Documents/xcode/ECEN1310Final/Mifare_SERVO/Mifare_SERVO/main.c ****                             addNext =0;//duplicate
 1818               	.LM182:
 1819 04d2 D501      		movw r26,r10
 1820 04d4 8D91      		ld r24,X+
 1821 04d6 5D01      		movw r10,r26
 1822 04d8 D901      		movw r26,r18
 1823 04da 9D91      		ld r25,X+
 1824 04dc 9D01      		movw r18,r26
 1825 04de 8917      		cp r24,r25
 1826 04e0 01F0      		breq .L55
 371:/Users/kevinKuwata1/Documents/xcode/ECEN1310Final/Mifare_SERVO/Mifare_SERVO/main.c ****                             addNext =0;//duplicate
 1828               	.LM183:
 1829 04e2 9081      		ld r25,Z
 1830 04e4 8913      		cpse r24,r25
 1831 04e6 00C0      		rjmp .L36
 1832               	.L55:
 372:/Users/kevinKuwata1/Documents/xcode/ECEN1310Final/Mifare_SERVO/Mifare_SERVO/main.c ****                             //not likely to happen but it could
 1834               	.LM184:
 1835 04e8 8701      		movw r16,r14
 1836               	.L36:
 1837 04ea 3196      		adiw r30,1
 370:/Users/kevinKuwata1/Documents/xcode/ECEN1310Final/Mifare_SERVO/Mifare_SERVO/main.c ****                         if(str[i] == ram_tag1[i] || str[i]== ram_tag2[i]){
 1839               	.LM185:
 1840 04ec A814      		cp r10,r8
 1841 04ee B904      		cpc r11,r9
 1842 04f0 01F4      		brne .L37
 1843               	.LBE163:
 376:/Users/kevinKuwata1/Documents/xcode/ECEN1310Final/Mifare_SERVO/Mifare_SERVO/main.c ****                     //LCDWriteString("whyyyyyy");
 1845               	.LM186:
 1846 04f2 60E0      		ldi r22,0
 1847 04f4 81E0      		ldi r24,lo8(1)
 1848 04f6 0E94 0000 		call LCDByte
 1849               	.LBB164:
 1850               	.LBB165:
 1852               	.Ltext63:
 187:/usr/local/Cellar/avr-gcc/6.2.0/avr/include/util/delay.h **** 
 1854               	.LM187:
 1855 04fa BFEF      		ldi r27,lo8(639999)
 1856 04fc E3EC      		ldi r30,hi8(639999)
 1857 04fe F9E0      		ldi r31,hlo8(639999)
 1858 0500 B150      	1:	subi r27,1
 1859 0502 E040      		sbci r30,0
 1860 0504 F040      		sbci r31,0
 1861 0506 01F4      		brne 1b
 1862 0508 00C0      		rjmp .
 1863 050a 0000      		nop
 1864               	.LBE165:
 1865               	.LBE164:
 1867               	.Ltext64:
 380:/Users/kevinKuwata1/Documents/xcode/ECEN1310Final/Mifare_SERVO/Mifare_SERVO/main.c ****                         LCDClear();
 1869               	.LM188:
 1870 050c 8091 0000 		lds r24,tagNumber
 1871 0510 9091 0000 		lds r25,tagNumber+1
 1872 0514 8130      		cpi r24,1
 1873 0516 9105      		cpc r25,__zero_reg__
 1874 0518 01F4      		brne .L38
 380:/Users/kevinKuwata1/Documents/xcode/ECEN1310Final/Mifare_SERVO/Mifare_SERVO/main.c ****                         LCDClear();
 1876               	.LM189:
 1877 051a 0130      		cpi r16,1
 1878 051c 1105      		cpc r17,__zero_reg__
 1879 051e 01F4      		brne .L35
 381:/Users/kevinKuwata1/Documents/xcode/ECEN1310Final/Mifare_SERVO/Mifare_SERVO/main.c ****                         LCDWriteString("ADDING CARD 1");
 1881               	.LM190:
 1882 0520 60E0      		ldi r22,0
 1883 0522 81E0      		ldi r24,lo8(1)
 1884 0524 0E94 0000 		call LCDByte
 382:/Users/kevinKuwata1/Documents/xcode/ECEN1310Final/Mifare_SERVO/Mifare_SERVO/main.c ****                         _delay_ms(1000);
 1886               	.LM191:
 1887 0528 80E0      		ldi r24,lo8(.LC10)
 1888 052a 90E0      		ldi r25,hi8(.LC10)
 1889 052c 0E94 0000 		call LCDWriteString
 1890               	.LBB166:
 1891               	.LBB167:
 1893               	.Ltext65:
 187:/usr/local/Cellar/avr-gcc/6.2.0/avr/include/util/delay.h **** 
 1895               	.LM192:
 1896 0530 2FEF      		ldi r18,lo8(1599999)
 1897 0532 89E6      		ldi r24,hi8(1599999)
 1898 0534 98E1      		ldi r25,hlo8(1599999)
 1899 0536 2150      	1:	subi r18,1
 1900 0538 8040      		sbci r24,0
 1901 053a 9040      		sbci r25,0
 1902 053c 01F4      		brne 1b
 1903 053e 00C0      		rjmp .
 1904 0540 0000      		nop
 1905 0542 00E0      		ldi r16,lo8(tag1)
 1906 0544 10E0      		ldi r17,hi8(tag1)
 1907               	.L39:
 1908               	.LBE167:
 1909               	.LBE166:
 1910               	.LBB168:
 1912               	.Ltext66:
 385:/Users/kevinKuwata1/Documents/xcode/ECEN1310Final/Mifare_SERVO/Mifare_SERVO/main.c ****                         }
 1914               	.LM193:
 1915 0546 D601      		movw r26,r12
 1916 0548 6D91      		ld r22,X+
 1917 054a 6D01      		movw r12,r26
 1918 054c F801      		movw r30,r16
 1919 054e 8191      		ld r24,Z+
 1920 0550 8F01      		movw r16,r30
 1921 0552 70E0      		ldi r23,0
 1922 0554 90E0      		ldi r25,0
 1923 0556 0E94 0000 		call eeprom_write_word
 384:/Users/kevinKuwata1/Documents/xcode/ECEN1310Final/Mifare_SERVO/Mifare_SERVO/main.c ****                             write_eeprom_word(tag1[i], str[i]);
 1925               	.LM194:
 1926 055a AC14      		cp r10,r12
 1927 055c BD04      		cpc r11,r13
 1928 055e 01F4      		brne .L39
 1929               	.L70:
 1930               	.LBE168:
 400:/Users/kevinKuwata1/Documents/xcode/ECEN1310Final/Mifare_SERVO/Mifare_SERVO/main.c ****                         addNext = 0;
 1932               	.LM195:
 1933 0560 8091 0000 		lds r24,tagNumber
 1934 0564 9091 0000 		lds r25,tagNumber+1
 1935 0568 0196      		adiw r24,1
 1936 056a 9093 0000 		sts tagNumber+1,r25
 1937 056e 8093 0000 		sts tagNumber,r24
 403:/Users/kevinKuwata1/Documents/xcode/ECEN1310Final/Mifare_SERVO/Mifare_SERVO/main.c ****                     }
 1939               	.LM196:
 1940 0572 60E0      		ldi r22,0
 1941 0574 81E0      		ldi r24,lo8(1)
 1942 0576 0E94 0000 		call LCDByte
 401:/Users/kevinKuwata1/Documents/xcode/ECEN1310Final/Mifare_SERVO/Mifare_SERVO/main.c ****                         deleteNext =0;
 1944               	.LM197:
 1945 057a 8701      		movw r16,r14
 1946               	.L35:
 1947               	.LBE184:
 424:/Users/kevinKuwata1/Documents/xcode/ECEN1310Final/Mifare_SERVO/Mifare_SERVO/main.c ****             byte = mfrc522_request(PICC_REQALL,str);
 1949               	.LM198:
 1950 057c 0E94 0000 		call loadTags
 425:/Users/kevinKuwata1/Documents/xcode/ECEN1310Final/Mifare_SERVO/Mifare_SERVO/main.c ****         }
 1952               	.LM199:
 1953 0580 BE01      		movw r22,r28
 1954 0582 6F5F      		subi r22,-1
 1955 0584 7F4F      		sbci r23,-1
 1956 0586 82E5      		ldi r24,lo8(82)
 1957 0588 0E94 0000 		call mfrc522_request
 1958 058c D82E      		mov r13,r24
 1959 058e 00C0      		rjmp .L33
 1960               	.L38:
 1961               	.LBB185:
 393:/Users/kevinKuwata1/Documents/xcode/ECEN1310Final/Mifare_SERVO/Mifare_SERVO/main.c ****                         LCDClear();
 1963               	.LM200:
 1964 0590 0297      		sbiw r24,2
 1965 0592 01F4      		brne .L35
 393:/Users/kevinKuwata1/Documents/xcode/ECEN1310Final/Mifare_SERVO/Mifare_SERVO/main.c ****                         LCDClear();
 1967               	.LM201:
 1968 0594 0130      		cpi r16,1
 1969 0596 1105      		cpc r17,__zero_reg__
 1970 0598 01F4      		brne .L35
 394:/Users/kevinKuwata1/Documents/xcode/ECEN1310Final/Mifare_SERVO/Mifare_SERVO/main.c ****                         LCDWriteString("ADDING CARD 2");
 1972               	.LM202:
 1973 059a 60E0      		ldi r22,0
 1974 059c 81E0      		ldi r24,lo8(1)
 1975 059e 0E94 0000 		call LCDByte
 395:/Users/kevinKuwata1/Documents/xcode/ECEN1310Final/Mifare_SERVO/Mifare_SERVO/main.c ****                         _delay_ms(1000);
 1977               	.LM203:
 1978 05a2 80E0      		ldi r24,lo8(.LC11)
 1979 05a4 90E0      		ldi r25,hi8(.LC11)
 1980 05a6 0E94 0000 		call LCDWriteString
 1981               	.LBB169:
 1982               	.LBB170:
 1984               	.Ltext67:
 187:/usr/local/Cellar/avr-gcc/6.2.0/avr/include/util/delay.h **** 
 1986               	.LM204:
 1987 05aa FFEF      		ldi r31,lo8(1599999)
 1988 05ac 29E6      		ldi r18,hi8(1599999)
 1989 05ae 88E1      		ldi r24,hlo8(1599999)
 1990 05b0 F150      	1:	subi r31,1
 1991 05b2 2040      		sbci r18,0
 1992 05b4 8040      		sbci r24,0
 1993 05b6 01F4      		brne 1b
 1994 05b8 00C0      		rjmp .
 1995 05ba 0000      		nop
 1996 05bc 00E0      		ldi r16,lo8(tag2)
 1997 05be 10E0      		ldi r17,hi8(tag2)
 1998               	.L40:
 1999               	.LBE170:
 2000               	.LBE169:
 2001               	.LBB171:
 2003               	.Ltext68:
 398:/Users/kevinKuwata1/Documents/xcode/ECEN1310Final/Mifare_SERVO/Mifare_SERVO/main.c ****                         }
 2005               	.LM205:
 2006 05c0 D601      		movw r26,r12
 2007 05c2 6D91      		ld r22,X+
 2008 05c4 6D01      		movw r12,r26
 2009 05c6 F801      		movw r30,r16
 2010 05c8 8191      		ld r24,Z+
 2011 05ca 8F01      		movw r16,r30
 2012 05cc 70E0      		ldi r23,0
 2013 05ce 90E0      		ldi r25,0
 2014 05d0 0E94 0000 		call eeprom_write_word
 397:/Users/kevinKuwata1/Documents/xcode/ECEN1310Final/Mifare_SERVO/Mifare_SERVO/main.c ****                             write_eeprom_word(tag2[i], str[i]);
 2016               	.LM206:
 2017 05d4 CA14      		cp r12,r10
 2018 05d6 DB04      		cpc r13,r11
 2019 05d8 01F4      		brne .L40
 2020 05da 00C0      		rjmp .L70
 2021               	.L43:
 2022               	.LBE171:
 2023               	.LBE185:
 2024               	.LBB186:
 440:/Users/kevinKuwata1/Documents/xcode/ECEN1310Final/Mifare_SERVO/Mifare_SERVO/main.c ****             }
 2026               	.LM207:
 2027 05dc 61E0      		ldi r22,lo8(1)
 2028 05de 80E0      		ldi r24,0
 2029 05e0 0E94 0000 		call LCDGotoXY
 2030 05e4 80E0      		ldi r24,lo8(.LC12)
 2031 05e6 90E0      		ldi r25,hi8(.LC12)
 2032 05e8 0E94 0000 		call LCDWriteString
 2033 05ec 00C0      		rjmp .L45
 2034               	.L48:
 2035               	.LBB161:
 459:/Users/kevinKuwata1/Documents/xcode/ECEN1310Final/Mifare_SERVO/Mifare_SERVO/main.c ****                     //nextTag read add
 2037               	.LM208:
 2038 05ee F201      		movw r30,r4
 2039 05f0 9081      		ld r25,Z
 2040 05f2 8917      		cp r24,r25
 2041 05f4 01F0      		breq .L57
 464:/Users/kevinKuwata1/Documents/xcode/ECEN1310Final/Mifare_SERVO/Mifare_SERVO/main.c ****                     deleteNext =1;
 2043               	.LM209:
 2044 05f6 D101      		movw r26,r2
 2045 05f8 9C91      		ld r25,X
 2046 05fa 8917      		cp r24,r25
 2047 05fc 01F0      		breq .L58
 468:/Users/kevinKuwata1/Documents/xcode/ECEN1310Final/Mifare_SERVO/Mifare_SERVO/main.c ****                     deleteNext = 0;
 2049               	.LM210:
 2050 05fe 8FEF      		ldi r24,lo8(-1)
 2051 0600 9FEF      		ldi r25,lo8(-1)
 2052 0602 9093 0000 		sts validCard+1,r25
 2053 0606 8093 0000 		sts validCard,r24
 469:/Users/kevinKuwata1/Documents/xcode/ECEN1310Final/Mifare_SERVO/Mifare_SERVO/main.c ****                     addNext = 0;
 2055               	.LM211:
 2056 060a 7801      		movw r14,r16
 470:/Users/kevinKuwata1/Documents/xcode/ECEN1310Final/Mifare_SERVO/Mifare_SERVO/main.c ****                 }
 2058               	.LM212:
 2059 060c 5801      		movw r10,r16
 2060 060e 00C0      		rjmp .L49
 2061               	.L57:
 461:/Users/kevinKuwata1/Documents/xcode/ECEN1310Final/Mifare_SERVO/Mifare_SERVO/main.c ****                     
 2063               	.LM213:
 2064 0610 AA24      		clr r10
 2065 0612 A394      		inc r10
 2066 0614 B12C      		mov r11,__zero_reg__
 2067 0616 00C0      		rjmp .L49
 2068               	.L58:
 465:/Users/kevinKuwata1/Documents/xcode/ECEN1310Final/Mifare_SERVO/Mifare_SERVO/main.c ****                 }
 2070               	.LM214:
 2071 0618 EE24      		clr r14
 2072 061a E394      		inc r14
 2073 061c F12C      		mov r15,__zero_reg__
 2074 061e 00C0      		rjmp .L49
 2075               	.L56:
 2076               	.LBE161:
 2077 0620 7801      		movw r14,r16
 2078 0622 5801      		movw r10,r16
 2079 0624 00C0      		rjmp .L42
 2080               	.LBE186:
 2086               	.Lscope11:
 2087               		.comm	ram_tag,10,1
 2089               	.global	tag
 2090               		.section	.eeprom,"aw",@progbits
 2093               	tag:
 2094 0000 0000 0000 		.zero	10
 2094      0000 0000 
 2094      0000 
 2096               	.global	removeTag2
 2097               		.section .bss
 2100               	removeTag2:
 2101 0000 0000      		.zero	2
 2103               	.global	removeTag1
 2106               	removeTag1:
 2107 0002 0000      		.zero	2
 2109               	.global	deleteNext
 2112               	deleteNext:
 2113 0004 0000      		.zero	2
 2115               	.global	maxNumberTags
 2116               		.data
 2119               	maxNumberTags:
 2120 0000 0500      		.word	5
 2122               	.global	tagNumber
 2125               	tagNumber:
 2126 0002 0100      		.word	1
 2128               	.global	validCard
 2131               	validCard:
 2132 0004 FEFF      		.word	-2
 2134               		.comm	ram_tag4,5,1
 2136               		.comm	ram_tag3,5,1
 2138               		.comm	ram_tag2,5,1
 2140               		.comm	ram_tag1,5,1
 2142               		.comm	tag2,5,1
 2144               		.comm	tag1,5,1
 2146               	.global	DELETE
 2149               	DELETE:
 2150 0006 91        		.byte	-111
 2151 0007 92        		.byte	-110
 2152 0008 05        		.byte	5
 2153 0009 6B        		.byte	107
 2154 000a 6D        		.byte	109
 2156               	.global	ADD
 2159               	ADD:
 2160 000b 79        		.byte	121
 2161 000c F1        		.byte	-15
 2162 000d B5        		.byte	-75
 2163 000e 3B        		.byte	59
 2164 000f 06        		.byte	6
 2166               	.global	card2
 2169               	card2:
 2170 0010 40        		.byte	64
 2171 0011 EE        		.byte	-18
 2172 0012 DF        		.byte	-33
 2173 0013 87        		.byte	-121
 2174 0014 F6        		.byte	-10
 2176               	.global	card1
 2179               	card1:
 2180 0015 AE        		.byte	-82
 2181 0016 44        		.byte	68
 2182 0017 2D        		.byte	45
 2183 0018 5B        		.byte	91
 2184 0019 9C        		.byte	-100
 2186               	.global	newCard
 2187               		.section	.eeprom
 2190               	newCard:
 2191 000a 0000      		.zero	2
 2193               		.text
 2195               	.Letext0:
 2196               		.ident	"GCC: (GNU) 6.2.0"
 2197               	.global __do_copy_data
 2198               	.global __do_clear_bss
DEFINED SYMBOLS
                            *ABS*:0000000000000000 main.c
/var/folders/lm/s_klhqwn77z639t7_2gx62rr0000gn/T//cca7w9LL.s:2      *ABS*:000000000000003e __SP_H__
/var/folders/lm/s_klhqwn77z639t7_2gx62rr0000gn/T//cca7w9LL.s:3      *ABS*:000000000000003d __SP_L__
/var/folders/lm/s_klhqwn77z639t7_2gx62rr0000gn/T//cca7w9LL.s:4      *ABS*:000000000000003f __SREG__
/var/folders/lm/s_klhqwn77z639t7_2gx62rr0000gn/T//cca7w9LL.s:5      *ABS*:0000000000000000 __tmp_reg__
/var/folders/lm/s_klhqwn77z639t7_2gx62rr0000gn/T//cca7w9LL.s:6      *ABS*:0000000000000001 __zero_reg__
/var/folders/lm/s_klhqwn77z639t7_2gx62rr0000gn/T//cca7w9LL.s:117    .text:0000000000000000 initServo
/var/folders/lm/s_klhqwn77z639t7_2gx62rr0000gn/T//cca7w9LL.s:173    .text:0000000000000026 initLED
/var/folders/lm/s_klhqwn77z639t7_2gx62rr0000gn/T//cca7w9LL.s:291    .text:0000000000000088 addQ
/var/folders/lm/s_klhqwn77z639t7_2gx62rr0000gn/T//cca7w9LL.s:343    .text:00000000000000b2 addTag
                            *COM*:0000000000000005 tag1
                            *COM*:0000000000000005 tag2
/var/folders/lm/s_klhqwn77z639t7_2gx62rr0000gn/T//cca7w9LL.s:469    .text:000000000000014e open
/var/folders/lm/s_klhqwn77z639t7_2gx62rr0000gn/T//cca7w9LL.s:528    .text:0000000000000176 close
/var/folders/lm/s_klhqwn77z639t7_2gx62rr0000gn/T//cca7w9LL.s:587    .text:000000000000019e initButton
/var/folders/lm/s_klhqwn77z639t7_2gx62rr0000gn/T//cca7w9LL.s:619    .text:00000000000001b0 buttonRead
/var/folders/lm/s_klhqwn77z639t7_2gx62rr0000gn/T//cca7w9LL.s:729    .text:0000000000000216 loadTags
                            *COM*:0000000000000005 ram_tag1
                            *COM*:0000000000000005 ram_tag2
/var/folders/lm/s_klhqwn77z639t7_2gx62rr0000gn/T//cca7w9LL.s:801    .text:0000000000000278 validTag
/var/folders/lm/s_klhqwn77z639t7_2gx62rr0000gn/T//cca7w9LL.s:894    .text.startup:0000000000000000 main
/var/folders/lm/s_klhqwn77z639t7_2gx62rr0000gn/T//cca7w9LL.s:2169   .data:0000000000000010 card2
/var/folders/lm/s_klhqwn77z639t7_2gx62rr0000gn/T//cca7w9LL.s:2159   .data:000000000000000b ADD
/var/folders/lm/s_klhqwn77z639t7_2gx62rr0000gn/T//cca7w9LL.s:2149   .data:0000000000000006 DELETE
/var/folders/lm/s_klhqwn77z639t7_2gx62rr0000gn/T//cca7w9LL.s:2179   .data:0000000000000015 card1
/var/folders/lm/s_klhqwn77z639t7_2gx62rr0000gn/T//cca7w9LL.s:2131   .data:0000000000000004 validCard
/var/folders/lm/s_klhqwn77z639t7_2gx62rr0000gn/T//cca7w9LL.s:2125   .data:0000000000000002 tagNumber
                            *COM*:000000000000000a ram_tag
/var/folders/lm/s_klhqwn77z639t7_2gx62rr0000gn/T//cca7w9LL.s:2093   .eeprom:0000000000000000 tag
/var/folders/lm/s_klhqwn77z639t7_2gx62rr0000gn/T//cca7w9LL.s:2100   .bss:0000000000000000 removeTag2
/var/folders/lm/s_klhqwn77z639t7_2gx62rr0000gn/T//cca7w9LL.s:2106   .bss:0000000000000002 removeTag1
/var/folders/lm/s_klhqwn77z639t7_2gx62rr0000gn/T//cca7w9LL.s:2112   .bss:0000000000000004 deleteNext
/var/folders/lm/s_klhqwn77z639t7_2gx62rr0000gn/T//cca7w9LL.s:2119   .data:0000000000000000 maxNumberTags
                            *COM*:0000000000000005 ram_tag4
                            *COM*:0000000000000005 ram_tag3
/var/folders/lm/s_klhqwn77z639t7_2gx62rr0000gn/T//cca7w9LL.s:2190   .eeprom:000000000000000a newCard

UNDEFINED SYMBOLS
eeprom_write_word
LCDByte
LCDWriteString
eeprom_read_word
LCDInit
LCDGotoXY
spi_init
mfrc522_init
mfrc522_request
LCDHexDumpXY
mfrc522_get_card_serial
LCDWriteInt
__do_copy_data
__do_clear_bss
